(lp1
(lp2
S'I'
aS'meet'
p3
aS'you'
p4
aa(lp5
S'Numerous'
p6
aS'as'
p7
aS'are'
p8
aa(lp9
S'Your'
p10
aS'own'
p11
aS'observations'
p12
aa(lp13
S'In'
p14
aS'tracing'
p15
aS'their'
p16
aa(lp17
S'But'
p18
aS'you'
p19
aS'nevertheless'
p20
aa(lp21
S'The'
p22
aS'rapid'
p23
aS'subscriptions'
p24
aa(lp25
S'In'
p26
aS'the'
p27
aS'interval'
p28
aa(lp29
S'Among'
p30
aS'the'
p31
aS'most'
p32
aa(lp33
S'To'
p34
aS'accomplish'
p35
aS'it'
p36
aa(lp37
S'Those'
p38
aS'measures'
p39
aS'having'
p40
aa(lp41
S'Offensive'
p42
aS'operations'
p43
aS'have'
p44
aa(lp45
S'Some'
p46
aS'of'
p47
aS'these'
p48
aa(lp49
S'The'
p50
aS'expeditions'
p51
aS'which'
p52
aa(lp53
S'Overtures'
p54
aS'of'
p55
aS'peace'
p56
aa(lp57
S'It'
p58
aS'is'
p59
aS'sincerely'
p60
aa(lp61
S'In'
p62
aS'order'
p63
aS'to'
p64
aa(lp65
S'That'
p66
aS'the'
p67
aS'mode'
p68
aa(lp69
S'That'
p70
aS'commerce'
p71
aS'with'
p72
aa(lp73
S'That'
p74
aS'the'
p75
aS'Executive'
p76
aa(lp77
S'And'
p78
aS'that'
p79
aS'efficacious'
p80
aa(lp81
S'A'
aS'system'
p82
aS'corresponding'
p83
aa(lp84
S'The'
p85
aS'powers'
p86
aS'specially'
p87
aa(lp88
S'In'
p89
aS'a'
aS'manner'
p90
aa(lp91
S'It'
p92
aS'is'
p93
aS'hoped'
p94
aa(lp95
S'The'
p96
aS'impressions'
p97
aS'with'
p98
aa(lp99
S'If'
p100
aS'there'
p101
aS'are'
p102
aa(lp103
S'It'
p104
aS'is'
p105
aS'desirable'
p106
aa(lp107
S'Pursuant'
p108
aS'to'
p109
aS'the'
p110
aa(lp111
S'A'
aS'city'
p112
aS'has'
p113
aa(lp114
S'The'
p115
aS'completion'
p116
aS'of'
p117
aa(lp118
S'It'
p119
aS'is'
p120
aS'proper'
p121
aa(lp122
S'Gentlemen'
p123
aS'of'
p124
aS'the'
p125
aa(lp126
S'Two'
p127
aS'treaties'
p128
aS'which'
p129
aa(lp130
S'Gentlemen'
p131
aS'of'
p132
aS'the'
p133
aa(lp134
S'In'
p135
aS'entering'
p136
aS'upon'
p137
aa(lp138
S'The'
p139
aS'important'
p140
aS'objects'
p141
aa(lp142
S'The'
p143
aS'time'
p144
aS'limited'
p145
aa(lp146
S'The'
p147
aS'subscription'
p148
aS'in'
p149
aa(lp150
S'The'
p151
aS'subscriptions'
p152
aS'in'
p153
aa(lp154
S'The'
p155
aS'part'
p156
aS'of'
p157
aa(lp158
S'It'
p159
aS'is'
p160
aS'particularly'
p161
aa(lp162
S'An'
p163
aS'object'
p164
aS'which'
p165
aa(lp166
S'Gentlemen'
p167
aS'of'
p168
aS'the'
p169
aa(lp170
S'I'
aS'shall'
p171
aS'content'
p172
aa(lp173
S'Their'
p174
aS'importance'
p175
aS'will'
p176
aa(lp177
S'These'
p178
aS'are'
p179
aS'the'
p180
aa(lp181
S'The'
p182
aS'first'
p183
aS'is'
p184
aa(lp185
S'In'
p186
aS'connection'
p187
aS'with'
p188
aa(lp189
S'The'
p190
aS'safety'
p191
aS'of'
p192
aa(lp193
S'The'
p194
aS'importance'
p195
aS'of'
p196
aa(lp197
S'The'
p198
aS'establishment'
p199
aS'of'
p200
aa(lp201
S'The'
p202
aS'disorders'
p203
aS'in'
p204
aa(lp205
S'Measures'
p206
aS'have'
p207
aS'been'
p208
aa(lp209
S'An'
p210
aS'uniformity'
p211
aS'in'
p212
aa(lp213
S'A'
aS'provision'
p214
aS'for'
p215
aa.