(lp1
(lp2
S'The'
p3
aS'Senate'
p4
aS'and'
p5
aa(lp6
S'The'
p7
aS'love'
p8
aS'of'
p9
aa(lp10
S'The'
p11
aS'many'
p12
aS'injuries'
p13
aa(lp14
S'The'
p15
aS'instructions'
p16
aS'given'
p17
aa(lp18
S'They'
p19
aS'accordingly'
p20
aS'proceeded'
p21
aa(lp22
S'After'
p23
aS'long'
p24
aS'and'
p25
aa(lp26
S'Some'
p27
aS'of'
p28
aS'the'
p29
aa(lp30
S'Still'
p31
aS'anxious'
p32
aS'not'
p33
aa(lp34
S'On'
p35
aS'this'
p36
aS'new'
p37
aa(lp38
S'On'
p39
aS'this'
p40
aS'outrage'
p41
aa(lp42
S'Its'
p43
aS'character'
p44
aS'has'
p45
aa(lp46
S'An'
p47
aS'armed'
p48
aS'vessel'
p49
aa(lp50
S'A'
aS'very'
p51
aS'short'
p52
aa(lp53
S'The'
p54
aS'aggression'
p55
aS'thus'
p56
aa(lp57
S'These'
p58
aS'aggravations'
p59
aS'necessarily'
p60
aa(lp61
S'To'
p62
aS'former'
p63
aS'violations'
p64
aa(lp65
S'The'
p66
aS'Government'
p67
aS'of'
p68
aa(lp69
S'Under'
p70
aS'this'
p71
aS'new'
p72
aa(lp73
S'Our'
p74
aS'differences'
p75
aS'with'
p76
aa(lp77
S'But'
p78
aS'under'
p79
aS'a'
aa(lp80
S'With'
p81
aS'their'
p82
aS'subjects'
p83
aa(lp84
S'To'
p85
aS'our'
p86
aS'former'
p87
aa(lp88
S'Whether'
p89
aS'this'
p90
aS'decree'
p91
aa(lp92
S'With'
p93
aS'the'
p94
aS'other'
p95
aa(lp96
S'Our'
p97
aS'peace'
p98
aS'with'
p99
aa(lp100
S'Among'
p101
aS'our'
p102
aS'Indian'
p103
aa(lp104
S'Messages'
p105
aS'were'
p106
aS'said'
p107
aa(lp108
S'Measures'
p109
aS'were'
p110
aS'immediately'
p111
aa(lp112
S'As'
p113
aS'far'
p114
aS'as'
p115
aa(lp116
S'The'
p117
aS'great'
p118
aS'tribes'
p119
aa(lp120
S'With'
p121
aS'the'
p122
aS'whole'
p123
aa(lp124
S'The'
p125
aS'appropriations'
p126
aS'of'
p127
aa(lp128
S'It'
p129
aS'has'
p130
aS'been'
p131
aa(lp132
S'The'
p133
aS'gun'
p134
aS'boats'
p135
aa(lp136
S'Whether'
p137
aS'our'
p138
aS'movable'
p139
aa(lp140
S'For'
p141
aS'the'
p142
aS'purpose'
p143
aa(lp144
S'The'
p145
aS'moment'
p146
aS'our'
p147
aa(lp148
S'To'
p149
aS'have'
p150
aS'awaited'
p151
aa(lp152
S'I'
aS'did'
p153
aS'not'
p154
aa(lp155
S'Whether'
p156
aS'a'
aS'regular'
p157
aa(lp158
S'In'
p159
aS'the'
p160
aS'mean'
p161
aa(lp162
S'They'
p163
aS'are'
p164
aS'ordered'
p165
aa(lp166
S'I'
aS'informed'
p167
aS'Congress'
p168
aa(lp169
S'Their'
p170
aS'enterprises'
p171
aS'were'
p172
aa(lp173
S'I'
aS'shall'
p174
aS'think'
p175
aa(lp176
S'You'
p177
aS'will'
p178
aS'be'
p179
aa(lp180
S'The'
p181
aS'framers'
p182
aS'of'
p183
aa(lp184
S'The'
p185
aS'accounts'
p186
aS'of'
p187
aa(lp188
S'In'
p189
aS'the'
p190
aS'mean'
p191
aa(lp192
S'A'
aS'portion'
p193
aS'of'
p194
aa(lp195
S'It'
p196
aS'may'
p197
aS'partly'
p198
aa(lp199
S'This'
p200
aS'object'
p201
aS'is'
p202
aa(lp203
S'Whether'
p204
aS'what'
p205
aS'shall'
p206
aa(lp207
S'Whatever'
p208
aS'be'
p209
aS'that'
p210
aa(lp211
S'Matters'
p212
aS'of'
p213
aS'minor'
p214
aa.