(lp1
(lp2
S'Since'
p3
aS'your'
p4
aS'last'
p5
aa(lp6
S'The'
p7
aS'correspondence'
p8
aS'touching'
p9
aa(lp10
S'If'
p11
aS'the'
p12
aS'condition'
p13
aa(lp14
S'In'
p15
aS'the'
p16
aS'month'
p17
aa(lp18
S'But'
p19
aS'the'
p20
aS'temporary'
p21
aa(lp22
S'The'
p23
aS'civil'
p24
aS'war'
p25
aa(lp26
S'It'
p27
aS'has'
p28
aS'at'
p29
aa(lp30
S'In'
p31
aS'this'
p32
aS'unusual'
p33
aa(lp34
S'We'
p35
aS'have'
p36
aS'attempted'
p37
aa(lp38
S'But'
p39
aS'we'
p40
aS'have'
p41
aa(lp42
S'Our'
p43
aS'struggle'
p44
aS'has'
p45
aa(lp46
S'The'
p47
aS'treaty'
p48
aS'with'
p49
aa(lp50
S'It'
p51
aS'is'
p52
aS'an'
p53
aa(lp54
S'The'
p55
aS'convention'
p56
aS'with'
p57
aa(lp58
S'A'
aS'blockade'
p59
aS'of'
p60
aa(lp61
S'A'
aS'civil'
p62
aS'war'
p63
aa(lp64
S'All'
p65
aS'such'
p66
aS'collisions'
p67
aa(lp68
S'In'
p69
aS'clear'
p70
aS'cases'
p71
aa(lp72
S'There'
p73
aS'is'
p74
aS'still'
p75
aa(lp76
S'I'
aS'have'
p77
aS'proposed'
p78
aa(lp79
S'This'
p80
aS'proposition'
p81
aS'has'
p82
aa(lp83
S'In'
p84
aS'each'
p85
aS'case'
p86
aa(lp87
S'I'
aS'deem'
p88
aS'it'
p89
aa(lp90
S'I'
aS'have'
p91
aS'directed'
p92
aa(lp93
S'Applications'
p94
aS'have'
p95
aS'been'
p96
aa(lp97
S'Under'
p98
aS'these'
p99
aS'circumstances'
p100
aa(lp101
S'Liberia'
p102
aS'and'
p103
aS'Hayti'
p104
aa(lp105
S'The'
p106
aS'new'
p107
aS'commercial'
p108
aa(lp109
S'A'
aS'commercial'
p110
aS'and'
p111
aa(lp112
S'A'
aS'considerable'
p113
aS'improvement'
p114
aa(lp115
S'Our'
p116
aS'relations'
p117
aS'with'
p118
aa(lp119
S'Very'
p120
aS'favorable'
p121
aS'relations'
p122
aa(lp123
S'During'
p124
aS'the'
p125
aS'last'
p126
aa(lp127
S'This'
p128
aS'statement'
p129
aS'especially'
p130
aa(lp131
S'The'
p132
aS'commission'
p133
aS'under'
p134
aa(lp135
S'A'
aS'proposition'
p136
aS'is'
p137
aa(lp138
S'The'
p139
aS'joint'
p140
aS'commission'
p141
aa(lp142
S'I'
aS'have'
p143
aS'favored'
p144
aa(lp145
S'The'
p146
aS'Territories'
p147
aS'of'
p148
aa(lp149
S'The'
p150
aS'immense'
p151
aS'mineral'
p152
aa(lp153
S'Every'
p154
aS'step'
p155
aS'in'
p156
aa(lp157
S'It'
p158
aS'is'
p159
aS'worthy'
p160
aa(lp161
S'The'
p162
aS'means'
p163
aS'which'
p164
aa(lp165
S'The'
p166
aS'condition'
p167
aS'of'
p168
aa(lp169
S'The'
p170
aS'vast'
p171
aS'expenditures'
p172
aa(lp173
S'The'
p174
aS'continuance'
p175
aS'of'
p176
aa(lp177
S'The'
p178
aS'suspension'
p179
aS'of'
p180
aa(lp181
S'In'
p182
aS'no'
p183
aS'other'
p184
aa(lp185
S'The'
p186
aS'judicious'
p187
aS'legislation'
p188
aa(lp189
S'A'
aS'return'
p190
aS'to'
p191
aa(lp192
S'Fluctuations'
p193
aS'in'
p194
aS'the'
p195
aa(lp196
S'I'
aS'know'
p197
aS'of'
p198
aa(lp199
S'To'
p200
aS'such'
p201
aS'associations'
p202
aa(lp203
S'A'
aS'moderate'
p204
aS'reservation'
p205
aa(lp206
S'The'
p207
aS'public'
p208
aS'credit'
p209
aa(lp210
S'It'
p211
aS'is'
p212
aS'an'
p213
aa(lp214
S'The'
p215
aS'receipts'
p216
aS'into'
p217
aa(lp218
S'The'
p219
aS'disbursements'
p220
aS'during'
p221
aa(lp222
S'It'
p223
aS'should'
p224
aS'be'
p225
aa(lp226
S'Other'
p227
aS'information'
p228
aS'on'
p229
aa(lp230
S'The'
p231
aS'reports'
p232
aS'of'
p233
aa(lp234
S'Nor'
p235
aS'could'
p236
aS'I'
aa(lp237
S'I'
aS'therefore'
p238
aS'content'
p239
aa(lp240
S'It'
p241
aS'gives'
p242
aS'me'
p243
aa(lp244
S'The'
p245
aS'receipts'
p246
aS'for'
p247
aa(lp248
S'Notwithstanding'
p249
aS'the'
p250
aS'cessation'
p251
aa(lp252
S'The'
p253
aS'expenditures'
p254
aS'show'
p255
aa(lp256
S'The'
p257
aS'amount'
p258
aS'expended'
p259
aa(lp260
S'For'
p261
aS'the'
p262
aS'last'
p263
aa(lp264
S'The'
p265
aS'deficiency'
p266
aS'in'
p267
aa(lp268
S'For'
p269
aS'the'
p270
aS'last'
p271
aa(lp272
S'These'
p273
aS'favorable'
p274
aS'results'
p275
aa(lp276
S'The'
p277
aS'efficiency'
p278
aS'of'
p279
aa(lp280
S'I'
aS'ask'
p281
aS'the'
p282
aa(lp283
S'The'
p284
aS'Secretary'
p285
aS'of'
p286
aa(lp287
S'The'
p288
aS'homestead'
p289
aS'law'
p290
aa(lp291
S'The'
p292
aS'discrepancy'
p293
aS'between'
p294
aa(lp295
S'The'
p296
aS'Indian'
p297
aS'tribes'
p298
aa(lp299
S'The'
p300
aS'tribes'
p301
aS'occupying'
p302
aa(lp303
S'Those'
p304
aS'who'
p305
aS'remained'
p306
aa(lp307
S'The'
p308
aS'chief'
p309
aS'of'
p310
aa(lp311
S'He'
p312
aS'alleges'
p313
aS'that'
p314
aa(lp315
S'In'
p316
aS'the'
p317
aS'month'
p318
aa(lp319
S'This'
p320
aS'attack'
p321
aS'was'
p322
aa(lp323
S'It'
p324
aS'is'
p325
aS'estimated'
p326
aa(lp327
S'How'
p328
aS'this'
p329
aS'outbreak'
p330
aa(lp331
S'Information'
p332
aS'was'
p333
aS'received'
p334
aa(lp335
S'The'
p336
aS'State'
p337
aS'of'
p338
aa(lp339
S'A'
aS'large'
p340
aS'portion'
p341
aa(lp342
S'The'
p343
aS'people'
p344
aS'of'
p345
aa(lp346
S'The'
p347
aS'Commissioner'
p348
aS'of'
p349
aa(lp350
S'I'
aS'submit'
p351
aS'for'
p352
aa(lp353
S'Many'
p354
aS'wise'
p355
aS'and'
p356
aa(lp357
S'I'
aS'submit'
p358
aS'a'
aa(lp359
S'And'
p360
aS'this'
p361
aS'suggests'
p362
aa(lp363
S'I'
aS'purpose'
p364
aS'having'
p365
aa(lp366
S'The'
p367
aS'military'
p368
aS'and'
p369
aa(lp370
S'I'
aS'respectfully'
p371
aS'ask'
p372
aa(lp373
S'To'
p374
aS'carry'
p375
aS'out'
p376
aa(lp377
S'The'
p378
aS'Commissioner'
p379
aS'informs'
p380
aa(lp381
S'The'
p382
aS'creation'
p383
aS'of'
p384
aa(lp385
S'In'
p386
aS'accordance'
p387
aS'with'
p388
aa(lp389
S'A'
aS'nation'
p390
aS'may'
p391
aa(lp392
S'The'
p393
aS'territory'
p394
aS'is'
p395
aa(lp396
S'That'
p397
aS'portion'
p398
aS'of'
p399
aa(lp400
S'Its'
p401
aS'vast'
p402
aS'extent'
p403
aa(lp404
S'In'
p405
aS'the'
p406
aS'inaugural'
p407
aa(lp408
S'I'
aS'did'
p409
aS'so'
p410
aa(lp411
S'This'
p412
aS'is'
p413
aS'the'
p414
aa(lp415
S'The'
p416
aS'great'
p417
aS'body'
p418
aa(lp419
S'This'
p420
aS'I'
aS'think'
p421
aa(lp422
S'The'
p423
aS'foreign'
p424
aS'slave'
p425
aa(lp426
S'We'
p427
aS'can'
p428
aS'not'
p429
aa(lp430
S'A'
aS'husband'
p431
aS'and'
p432
aa(lp433
S'They'
p434
aS'can'
p435
aS'not'
p436
aa(lp437
S'Can'
p438
aS'aliens'
p439
aS'make'
p440
aa(lp441
S'Can'
p442
aS'treaties'
p443
aS'be'
p444
aa(lp445
S'Suppose'
p446
aS'you'
p447
aS'go'
p448
aa(lp449
S'There'
p450
aS'is'
p451
aS'no'
p452
aa(lp453
S'and'
p454
aS'we'
p455
aS'shall'
p456
aa(lp457
S'No'
p458
aS'part'
p459
aS'of'
p460
aa(lp461
S'The'
p462
aS'fact'
p463
aS'of'
p464
aa(lp465
S'But'
p466
aS'there'
p467
aS'is'
p468
aa(lp469
S'The'
p470
aS'great'
p471
aS'interior'
p472
aa(lp473
S'It'
p474
aS'contains'
p475
aS'more'
p476
aa(lp477
S'Once'
p478
aS'half'
p479
aS'as'
p480
aa(lp481
S'A'
aS'glance'
p482
aS'at'
p483
aa(lp484
S'The'
p485
aS'other'
p486
aS'parts'
p487
aa(lp488
S'the'
p489
aS'magnificent'
p490
aS'region'
p491
aa(lp492
S'In'
p493
aS'the'
p494
aS'production'
p495
aa(lp496
S'Ascertain'
p497
aS'from'
p498
aS'the'
p499
aa(lp500
S'And'
p501
aS'yet'
p502
aS'this'
p503
aa(lp504
S'As'
p505
aS'part'
p506
aS'of'
p507
aa(lp508
S'And'
p509
aS'this'
p510
aS'is'
p511
aa(lp512
S'Place'
p513
aS'it'
p514
aS'between'
p515
aa(lp516
S'Which'
p517
aS'of'
p518
aS'the'
p519
aa(lp520
S'All'
p521
aS'are'
p522
aS'better'
p523
aa(lp524
S'True'
p525
aS'to'
p526
aS'themselves'
p527
aa(lp528
S'Nor'
p529
aS'are'
p530
aS'the'
p531
aa(lp532
S'Our'
p533
aS'national'
p534
aS'strife'
p535
aa(lp536
S'There'
p537
aS'is'
p538
aS'no'
p539
aa(lp540
S'In'
p541
aS'all'
p542
aS'its'
p543
aa(lp544
S'Our'
p545
aS'strife'
p546
aS'pertains'
p547
aa(lp548
S'In'
p549
aS'this'
p550
aS'view'
p551
aa(lp552
S'Every'
p553
aS'State'
p554
aS'wherein'
p555
aa(lp556
S'The'
p557
aS'President'
p558
aS'of'
p559
aa(lp560
S'Any'
p561
aS'State'
p562
aS'having'
p563
aa(lp564
S'I'
aS'beg'
p565
aS'indulgence'
p566
aa(lp567
S'Without'
p568
aS'slavery'
p569
aS'the'
p570
aa(lp571
S'Among'
p572
aS'the'
p573
aS'friends'
p574
aa(lp575
S'Some'
p576
aS'would'
p577
aS'perpetuate'
p578
aa(lp579
S'Because'
p580
aS'of'
p581
aS'these'
p582
aa(lp583
S'By'
p584
aS'mutual'
p585
aS'concession'
p586
aa(lp587
S'This'
p588
aS'would'
p589
aS'be'
p590
aa(lp591
S'These'
p592
aS'articles'
p593
aS'are'
p594
aa(lp595
S'if'
p596
aS'the'
p597
aS'plan'
p598
aa(lp599
S'As'
p600
aS'to'
p601
aS'the'
p602
aa(lp603
S'The'
p604
aS'emancipation'
p605
aS'will'
p606
aa(lp607
S'The'
p608
aS'time'
p609
aS'spares'
p610
aa(lp611
S'They'
p612
aS'will'
p613
aS'never'
p614
aa(lp615
S'Another'
p616
aS'class'
p617
aS'will'
p618
aa(lp619
S'They'
p620
aS'will'
p621
aS'feel'
p622
aa(lp623
S'But'
p624
aS'it'
p625
aS'really'
p626
aa(lp627
S'It'
p628
aS'saves'
p629
aS'them'
p630
aa(lp631
S'The'
p632
aS'plan'
p633
aS'leaves'
p634
aa(lp635
S'It'
p636
aS'also'
p637
aS'provides'
p638
aa(lp639
S'Doubtless'
p640
aS'some'
p641
aS'of'
p642
aa(lp643
S'Yet'
p644
aS'the'
p645
aS'measure'
p646
aa(lp647
S'In'
p648
aS'a'
aS'certain'
p649
aa(lp650
S'It'
p651
aS'is'
p652
aS'no'
p653
aa(lp654
S'And'
p655
aS'if'
p656
aS'with'
p657
aa(lp658
S'Let'
p659
aS'us'
p660
aS'consider'
p661
aa(lp662
S'Let'
p663
aS'us'
p664
aS'ascertain'
p665
aa(lp666
S'Certainly'
p667
aS'it'
p668
aS'is'
p669
aa(lp670
S'And'
p671
aS'it'
p672
aS'is'
p673
aa(lp674
S'The'
p675
aS'war'
p676
aS'requires'
p677
aa(lp678
S'The'
p679
aS'aggregate'
p680
aS'sum'
p681
aa(lp682
S'But'
p683
aS'it'
p684
aS'would'
p685
aa(lp686
S'This'
p687
aS'might'
p688
aS'not'
p689
aa(lp690
S'At'
p691
aS'that'
p692
aS'time'
p693
aa(lp694
S'And'
p695
aS'not'
p696
aS'only'
p697
aa(lp698
S'I'
aS'do'
p699
aS'not'
p700
aa(lp701
S'At'
p702
aS'the'
p703
aS'same'
p704
aa(lp705
S'And'
p706
aS'why'
p707
aS'may'
p708
aa(lp709
S'Our'
p710
aS'abundant'
p711
aS'room'
p712
aa(lp713
S'Were'
p714
aS'our'
p715
aS'territory'
p716
aa(lp717
S'Instead'
p718
aS'of'
p719
aS'receiving'
p720
aa(lp721
S'But'
p722
aS'such'
p723
aS'is'
p724
aa(lp725
S'Why'
p726
aS'may'
p727
aS'not'
p728
aa(lp729
S'Is'
p730
aS'it'
p731
aS'less'
p732
aa(lp733
S'Has'
p734
aS'it'
p735
aS'more'
p736
aa(lp737
S'Is'
p738
aS'it'
p739
aS'inferior'
p740
aa(lp741
S'As'
p742
aS'to'
p743
aS'when'
p744
aa(lp745
S'Several'
p746
aS'of'
p747
aS'our'
p748
aa(lp749
S'Also'
p750
aS'two'
p751
aS'other'
p752
aa(lp753
S'The'
p754
aS'States'
p755
aS'already'
p756
aa(lp757
S'Taking'
p758
aS'the'
p759
aS'nation'
p760
aa(lp761
S'This'
p762
aS'shows'
p763
aS'an'
p764
aa(lp765
S'It'
p766
aS'is'
p767
aS'seen'
p768
aa(lp769
S'Assuming'
p770
aS'that'
p771
aS'it'
p772
aa(lp773
S'These'
p774
aS'figures'
p775
aS'show'
p776
aa(lp777
S'And'
p778
aS'we'
p779
aS'will'
p780
aa(lp781
S'While'
p782
aS'it'
p783
aS'can'
p784
aa(lp785
S'The'
p786
aS'proposed'
p787
aS'emancipation'
p788
aa(lp789
S'With'
p790
aS'these'
p791
aS'we'
p792
aa(lp793
S'If'
p794
aS'we'
p795
aS'had'
p796
aa(lp797
S'Thus'
p798
aS'time'
p799
aS'alone'
p800
aa(lp801
S'This'
p802
aS'fact'
p803
aS'would'
p804
aa(lp805
S'In'
p806
aS'a'
aS'word'
p807
aa(lp808
S'And'
p809
aS'then'
p810
aS'the'
p811
aa(lp812
S'It'
p813
aS'will'
p814
aS'be'
p815
aa(lp816
S'As'
p817
aS'to'
p818
aS'the'
p819
aa(lp820
S'Some'
p821
aS'of'
p822
aS'them'
p823
aa(lp824
S'The'
p825
aS'third'
p826
aS'article'
p827
aa(lp828
S'It'
p829
aS'does'
p830
aS'not'
p831
aa(lp832
S'This'
p833
aS'ought'
p834
aS'not'
p835
aa(lp836
S'I'
aS'can'
p837
aS'not'
p838
aa(lp839
S'It'
p840
aS'is'
p841
aS'insisted'
p842
aa(lp843
S'If'
p844
aS'there'
p845
aS'ever'
p846
aa(lp847
S'In'
p848
aS'times'
p849
aS'like'
p850
aa(lp851
S'Is'
p852
aS'it'
p853
aS'true'
p854
aa(lp855
S'If'
p856
aS'they'
p857
aS'stay'
p858
aa(lp859
S'Thus'
p860
aS'the'
p861
aS'customary'
p862
aa(lp863
S'Labor'
p864
aS'is'
p865
aS'like'
p866
aa(lp867
S'Reduce'
p868
aS'the'
p869
aS'supply'
p870
aa(lp871
S'But'
p872
aS'it'
p873
aS'is'
p874
aa(lp875
S'Are'
p876
aS'they'
p877
aS'not'
p878
aa(lp879
S'Will'
p880
aS'liberation'
p881
aS'make'
p882
aa(lp883
S'Equally'
p884
aS'distributed'
p885
aS'among'
p886
aa(lp887
S'Could'
p888
aS'the'
p889
aS'one'
p890
aa(lp891
S'There'
p892
aS'are'
p893
aS'many'
p894
aa(lp895
S'The'
p896
aS'District'
p897
aS'of'
p898
aa(lp899
S'The'
p900
aS'District'
p901
aS'has'
p902
aa(lp903
S'But'
p904
aS'why'
p905
aS'should'
p906
aa(lp907
S'People'
p908
aS'of'
p909
aS'any'
p910
aa(lp911
S'Hertofore'
p912
aS'colored'
p913
aS'people'
p914
aa(lp915
S'But'
p916
aS'if'
p917
aS'gradual'
p918
aa(lp919
S'Their'
p920
aS'old'
p921
aS'masters'
p922
aa(lp923
S'This'
p924
aS'proposition'
p925
aS'can'
p926
aa(lp927
S'And'
p928
aS'in'
p929
aS'any'
p930
aa(lp931
S'What'
p932
aS'I'
aS'have'
p933
aa(lp934
S'The'
p935
aS'plan'
p936
aS'consisting'
p937
aa(lp938
S'Nor'
p939
aS'will'
p940
aS'the'
p941
aa(lp942
S'Its'
p943
aS'timely'
p944
aS'adoption'
p945
aa(lp946
S'And'
p947
aS'notwithstanding'
p948
aS'this'
p949
aa(lp950
S'Such'
p951
aS'would'
p952
aS'be'
p953
aa(lp954
S'This'
p955
aS'plan'
p956
aS'is'
p957
aa(lp958
S'The'
p959
aS'subject'
p960
aS'is'
p961
aa(lp962
S'The'
p963
aS'plan'
p964
aS'would'
p965
aa(lp966
S'It'
p967
aS'is'
p968
aS'much'
p969
aa(lp970
S'The'
p971
aS'plan'
p972
aS'is'
p973
aa(lp974
S'It'
p975
aS'can'
p976
aS'not'
p977
aa(lp978
S'This'
p979
aS'assurance'
p980
aS'would'
p981
aa(lp982
S'I'
aS'do'
p983
aS'not'
p984
aa(lp985
S'Yet'
p986
aS'I'
aS'trust'
p987
aa(lp988
S'Is'
p989
aS'it'
p990
aS'doubted'
p991
aa(lp992
S'Is'
p993
aS'it'
p994
aS'doubted'
p995
aa(lp996
S'Is'
p997
aS'it'
p998
aS'doubted'
p999
aa(lp1000
S'Will'
p1001
aS'not'
p1002
aS'the'
p1003
aa(lp1004
S'We'
p1005
aS'can'
p1006
aS'succeed'
p1007
aa(lp1008
S'It'
p1009
aS'is'
p1010
aS'not'
p1011
aa(lp1012
S'The'
p1013
aS'occasion'
p1014
aS'is'
p1015
aa(lp1016
S'As'
p1017
aS'our'
p1018
aS'case'
p1019
aa(lp1020
S'We'
p1021
aS'must'
p1022
aS'disenthrall'
p1023
aa(lp1024
S'We'
p1025
aS'of'
p1026
aS'this'
p1027
aa(lp1028
S'No'
p1029
aS'personal'
p1030
aS'significance'
p1031
aa(lp1032
S'The'
p1033
aS'fiery'
p1034
aS'trial'
p1035
aa(lp1036
S'We'
p1037
aS'say'
p1038
aS'we'
p1039
aa(lp1040
S'The'
p1041
aS'world'
p1042
aS'will'
p1043
aa(lp1044
S'We'
p1045
aS'know'
p1046
aS'how'
p1047
aa(lp1048
S'The'
p1049
aS'world'
p1050
aS'knows'
p1051
aa(lp1052
S'In'
p1053
aS'giving'
p1054
aS'freedom'
p1055
aa(lp1056
S'We'
p1057
aS'shall'
p1058
aS'nobly'
p1059
aa(lp1060
S'Other'
p1061
aS'means'
p1062
aS'may'
p1063
aa(lp1064
S'The'
p1065
aS'way'
p1066
aS'is'
p1067
aa.