(lp1
(lp2
S'To'
p3
aS'the'
p4
aS'Senate'
p5
aa(lp6
S'The'
p7
aS'financial'
p8
aS'standing'
p9
aa(lp10
S'But'
p11
aS'our'
p12
aS'currency'
p13
aa(lp14
S'During'
p15
aS'the'
p16
aS'period'
p17
aa(lp18
S'The'
p19
aS'increase'
p20
aS'in'
p21
aa(lp22
S'Within'
p23
aS'this'
p24
aS'time'
p25
aa(lp26
S'Our'
p27
aS'imperfect'
p28
aS'currency'
p29
aa(lp30
S'By'
p31
aS'the'
p32
aS'middle'
p33
aa(lp34
S'Clearing'
p35
aS'house'
p36
aS'associations'
p37
aa(lp38
S'In'
p39
aS'this'
p40
aS'emergency'
p41
aa(lp42
S'It'
p43
aS'was'
p44
aS'proposed'
p45
aa(lp46
S'The'
p47
aS'moral'
p48
aS'effect'
p49
aa(lp50
S'During'
p51
aS'the'
p52
aS'period'
p53
aa(lp54
S'The'
p55
aS'net'
p56
aS'result'
p57
aa(lp58
S'The'
p59
aS'financial'
p60
aS'operations'
p61
aa(lp62
S'Refunding'
p63
aS'operations'
p64
aS'of'
p65
aa(lp66
S'A'
aS'decrease'
p67
aS'of'
p68
aa(lp69
S'This'
p70
aS'is'
p71
aS'an'
p72
aa(lp73
S'There'
p74
aS'have'
p75
aS'been'
p76
aa(lp77
S'As'
p78
aS'regards'
p79
aS'the'
p80
aa(lp81
S'I'
aS'believe'
p82
aS'that'
p83
aa(lp84
S'I'
aS'strongly'
p85
aS'advocate'
p86
aa(lp87
S'One'
p88
aS'of'
p89
aS'the'
p90
aa(lp91
S'The'
p92
aS'railways'
p93
aS'of'
p94
aa(lp95
S'The'
p96
aS'power'
p97
aS'of'
p98
aa(lp99
S'As'
p100
aS'regards'
p101
aS'rates'
p102
aa(lp103
S'The'
p104
aS'power'
p105
aS'to'
p106
aa(lp107
S'Power'
p108
aS'to'
p109
aS'make'
p110
aa(lp111
S'In'
p112
aS'the'
p113
aS'interest'
p114
aa(lp115
S'It'
p116
aS'is'
p117
aS'to'
p118
aa(lp119
S'The'
p120
aS'guiding'
p121
aS'intelligences'
p122
aa(lp123
S'In'
p124
aS'addition'
p125
aS'to'
p126
aa(lp127
S'To'
p128
aS'give'
p129
aS'any'
p130
aa(lp131
S'Rates'
p132
aS'must'
p133
aS'be'
p134
aa(lp135
S'Telegraph'
p136
aS'and'
p137
aS'telephone'
p138
aa(lp139
S'It'
p140
aS'is'
p141
aS'very'
p142
aa(lp143
S'It'
p144
aS'is'
p145
aS'hard'
p146
aa(lp147
S'Both'
p148
aS'the'
p149
aS'preachers'
p150
aa(lp151
S'To'
p152
aS'permit'
p153
aS'every'
p154
aa(lp155
S'On'
p156
aS'the'
p157
aS'other'
p158
aa(lp159
S'The'
p160
aS'war'
p161
aS'we'
p162
aa(lp163
S'It'
p164
aS'is'
p165
aS'to'
p166
aa(lp167
S'It'
p168
aS'is'
p169
aS'well'
p170
aa(lp171
S'In'
p172
aS'point'
p173
aS'of'
p174
aa(lp175
S'Let'
p176
aS'each'
p177
aS'group'
p178
aa(lp179
S'Too'
p180
aS'often'
p181
aS'we'
p182
aa(lp183
S'Such'
p184
aS'an'
p185
aS'attitude'
p186
aa(lp187
S'On'
p188
aS'the'
p189
aS'other'
p190
aa(lp191
S'The'
p192
aS'opposition'
p193
aS'to'
p194
aa(lp195
S'Of'
p196
aS'course'
p197
aS'there'
p198
aa(lp199
S'These'
p200
aS'men'
p201
aS'do'
p202
aa(lp203
S'The'
p204
aS'effective'
p205
aS'fight'
p206
aa(lp207
S'It'
p208
aS'is'
p209
aS'not'
p210
aa(lp211
S'Of'
p212
aS'course'
p213
aS'the'
p214
aa(lp215
S'The'
p216
aS'chief'
p217
aS'reason'
p218
aa(lp219
S'Interstate'
p220
aS'commerce'
p221
aS'is'
p222
aa(lp223
S'The'
p224
aS'proposal'
p225
aS'to'
p226
aa(lp227
S'It'
p228
aS'does'
p229
aS'not'
p230
aa(lp231
S'It'
p232
aS'represents'
p233
aS'merely'
p234
aa(lp235
S'If'
p236
aS'this'
p237
aS'irresponsible'
p238
aa(lp239
S'Forty'
p240
aS'or'
p241
aS'fifty'
p242
aa(lp243
S'Such'
p244
aS'divided'
p245
aS'authority'
p246
aa(lp247
S'The'
p248
aS'Central'
p249
aS'Government'
p250
aa(lp251
S'To'
p252
aS'abandon'
p253
aS'the'
p254
aa(lp255
S'I'
aS'believe'
p256
aS'that'
p257
aa(lp258
S'The'
p259
aS'truth'
p260
aS'is'
p261
aa(lp262
S'Those'
p263
aS'who'
p264
aS'believe'
p265
aa(lp266
S'On'
p267
aS'the'
p268
aS'contrary'
p269
aa(lp270
S'We'
p271
aS'do'
p272
aS'not'
p273
aa(lp274
S'We'
p275
aS'believe'
p276
aS'that'
p277
aa(lp278
S'We'
p279
aS'believe'
p280
aS'that'
p281
aa(lp282
S'We'
p283
aS'do'
p284
aS'not'
p285
aa(lp286
S'The'
p287
aS'solution'
p288
aS'will'
p289
aa(lp290
S'Some'
p291
aS'of'
p292
aS'these'
p293
aa(lp294
S'Some'
p295
aS'must'
p296
aS'lie'
p297
aa(lp298
S'But'
p299
aS'there'
p300
aS'is'
p301
aa(lp302
S'Many'
p303
aS'laws'
p304
aS'are'
p305
aa(lp306
S'There'
p307
aS'should'
p308
aS'be'
p309
aa(lp310
S'There'
p311
aS'should'
p312
aS'be'
p313
aa(lp314
S'There'
p315
aS'should'
p316
aS'be'
p317
aa(lp318
S'The'
p319
aS'labor'
p320
aS'legislation'
p321
aa(lp322
S'To'
p323
aS'accomplish'
p324
aS'this'
p325
aa(lp326
S'The'
p327
aS'power'
p328
aS'already'
p329
aa(lp330
S'Let'
p331
aS'those'
p332
aS'who'
p333
aa(lp334
S'We'
p335
aS'no'
p336
aS'more'
p337
aa(lp338
S'The'
p339
aS'danger'
p340
aS'to'
p341
aa(lp342
S'It'
p343
aS'lies'
p344
aS'in'
p345
aa(lp346
S'Concentrated'
p347
aS'power'
p348
aS'is'
p349
aa(lp350
S'Power'
p351
aS'scattered'
p352
aS'through'
p353
aa(lp354
S'Democracy'
p355
aS'is'
p356
aS'in'
p357
aa(lp358
S'It'
p359
aS'is'
p360
aS'not'
p361
aa(lp362
S'There'
p363
aS'are'
p364
aS'many'
p365
aa(lp366
S'This'
p367
aS'administration'
p368
aS'is'
p369
aa(lp370
S'A'
aS'blind'
p371
aS'and'
p372
aa(lp373
S'I'
aS'believe'
p374
aS'in'
p375
aa(lp376
S'As'
p377
aS'far'
p378
aS'as'
p379
aa(lp380
S'These'
p381
aS'are'
p382
aS'all'
p383
aa(lp384
S'The'
p385
aS'more'
p386
aS'we'
p387
aa(lp388
S'Every'
p389
aS'increase'
p390
aS'in'
p391
aa(lp392
S'Very'
p393
aS'much'
p394
aS'of'
p395
aa(lp396
S'Postal'
p397
aS'savings'
p398
aS'banks'
p399
aa(lp400
S'The'
p401
aS'regulation'
p402
aS'of'
p403
aa(lp404
S'Corporate'
p405
aS'finances'
p406
aS'must'
p407
aa(lp408
S'There'
p409
aS'must'
p410
aS'be'
p411
aa(lp412
S'There'
p413
aS'should'
p414
aS'be'
p415
aa(lp416
S'Industrial'
p417
aS'education'
p418
aS'should'
p419
aa(lp420
S'As'
p421
aS'far'
p422
aS'as'
p423
aa(lp424
S'We'
p425
aS'should'
p426
aS'put'
p427
aa(lp428
S'It'
p429
aS'is'
p430
aS'eminently'
p431
aa(lp432
S'They'
p433
aS'rarely'
p434
aS'do'
p435
aa(lp436
S'PROTECTION'
p437
aS'FOR'
p438
aS'WAGEWORKERS'
p439
aa(lp440
S'The'
p441
aS'above'
p442
aS'is'
p443
aa(lp444
S'But'
p445
aS'there'
p446
aS'is'
p447
aa(lp448
S'There'
p449
aS'should'
p450
aS'no'
p451
aa(lp452
S'The'
p453
aS'majority'
p454
aS'of'
p455
aa(lp456
S'The'
p457
aS'object'
p458
aS'sought'
p459
aa(lp460
S'As'
p461
aS'far'
p462
aS'as'
p463
aa(lp464
S'These'
p465
aS'may'
p466
aS'be'
p467
aa(lp468
S'To'
p469
aS'strengthen'
p470
aS'these'
p471
aa(lp472
S'Our'
p473
aS'present'
p474
aS'system'
p475
aa(lp476
S'When'
p477
aS'a'
aS'workman'
p478
aa(lp479
S'The'
p480
aS'number'
p481
aS'of'
p482
aa(lp483
S'No'
p484
aS'academic'
p485
aS'theory'
p486
aa(lp487
S'Progress'
p488
aS'in'
p489
aS'civilization'
p490
aa(lp491
S'I'
aS'call'
p492
aS'your'
p493
aa(lp494
S'Pending'
p495
aS'a'
aS'thoroughgoing'
p496
aa(lp497
S'There'
p498
aS'is'
p499
aS'no'
p500
aa(lp501
S'If'
p502
aS'a'
aS'man'
p503
aa(lp504
S'It'
p505
aS'is'
p506
aS'a'
aa(lp507
S'Perhaps'
p508
aS'one'
p509
aS'of'
p510
aa(lp511
S'The'
p512
aS'terms'
p513
aS'of'
p514
aa(lp515
S'And'
p516
aS'in'
p517
aS'the'
p518
aa(lp519
S'In'
p520
aS'this'
p521
aS'respect'
p522
aa(lp523
S'The'
p524
aS'terms'
p525
aS'of'
p526
aa(lp527
S'It'
p528
aS'is'
p529
aS'inevitable'
p530
aa(lp531
S'So'
p532
aS'well'
p533
aS'is'
p534
aa(lp535
S'Probably'
p536
aS'in'
p537
aS'no'
p538
aa(lp539
S'It'
p540
aS'is'
p541
aS'humiliating'
p542
aa(lp543
S'This'
p544
aS'Government'
p545
aS'is'
p546
aa(lp547
S'The'
p548
aS'laws'
p549
aS'of'
p550
aa(lp551
S'The'
p552
aS'Congress'
p553
aS'should'
p554
aa(lp555
S'There'
p556
aS'should'
p557
aS'be'
p558
aa(lp559
S'If'
p560
aS'there'
p561
aS'is'
p562
aa(lp563
S'In'
p564
aS'all'
p565
aS'other'
p566
aa(lp567
S'The'
p568
aS'severity'
p569
aS'and'
p570
aa(lp571
S'A'
aS'comprehensive'
p572
aS'employers'
p573
aa(lp574
S'I'
aS'renew'
p575
aS'my'
p576
aa(lp577
S'I'
aS'also'
p578
aS'renew'
p579
aa(lp580
S'I'
aS'most'
p581
aS'earnestly'
p582
aa(lp583
S'On'
p584
aS'the'
p585
aS'whole'
p586
aa(lp587
S'Beginning'
p588
aS'with'
p589
aS'the'
p590
aa(lp591
S'It'
p592
aS'is'
p593
aS'not'
p594
aa(lp595
S'It'
p596
aS'is'
p597
aS'earnestly'
p598
aa(lp599
S'These'
p600
aS'long'
p601
aS'delays'
p602
aa(lp603
S'Much'
p604
aS'of'
p605
aS'this'
p606
aa(lp607
S'In'
p608
aS'some'
p609
aS'noted'
p610
aa(lp611
S'At'
p612
aS'the'
p613
aS'last'
p614
aa(lp615
S'It'
p616
aS'was'
p617
aS'the'
p618
aa(lp619
S'They'
p620
aS'insisted'
p621
aS'on'
p622
aa(lp623
S'In'
p624
aS'other'
p625
aS'words'
p626
aa(lp627
S'this'
p628
aS'bill'
p629
aS'legalized'
p630
aa(lp631
S'The'
p632
aS'demand'
p633
aS'was'
p634
aa(lp635
S'All'
p636
aS'this'
p637
aS'represented'
p638
aa(lp639
S'The'
p640
aS'violence'
p641
aS'of'
p642
aa(lp643
S'In'
p644
aS'the'
p645
aS'first'
p646
aa(lp647
S'Such'
p648
aS'a'
aS'crude'
p649
aa(lp650
S'A'
aS'movement'
p651
aS'of'
p652
aa(lp653
S'This'
p654
aS'is'
p655
aS'a'
aa(lp656
S'Any'
p657
aS'movement'
p658
aS'based'
p659
aa(lp660
S'The'
p661
aS'movement'
p662
aS'in'
p663
aa(lp664
S'Such'
p665
aS'an'
p666
aS'appeal'
p667
aa(lp668
S'The'
p669
aS'result'
p670
aS'is'
p671
aa(lp672
S'This'
p673
aS'healthy'
p674
aS'truth'
p675
aa(lp676
S'The'
p677
aS'whole'
p678
aS'country'
p679
aa(lp680
S'Such'
p681
aS'an'
p682
aS'attitude'
p683
aa(lp684
S'But'
p685
aS'the'
p686
aS'extreme'
p687
aa(lp688
S'The'
p689
aS'judges'
p690
aS'who'
p691
aa(lp692
S'The'
p693
aS'courts'
p694
aS'are'
p695
aa(lp696
S'The'
p697
aS'rapid'
p698
aS'changes'
p699
aa(lp700
S'What'
p701
aS'would'
p702
aS'have'
p703
aa(lp704
S'What'
p705
aS'would'
p706
aS'have'
p707
aa(lp708
S'Every'
p709
aS'judicial'
p710
aS'decision'
p711
aa(lp712
S'The'
p713
aS'great'
p714
aS'mass'
p715
aa(lp716
S'Our'
p717
aS'judicial'
p718
aS'system'
p719
aa(lp720
S'Judges'
p721
aS'of'
p722
aS'this'
p723
aa(lp724
S'To'
p725
aS'such'
p726
aS'men'
p727
aa(lp728
S'It'
p729
aS'is'
p730
aS'desirable'
p731
aa(lp732
S'There'
p733
aS'are'
p734
aS'certain'
p735
aa(lp736
S'This'
p737
aS'is'
p738
aS'true'
p739
aa(lp740
S'The'
p741
aS'most'
p742
aS'dangerous'
p743
aa(lp744
S'Decisions'
p745
aS'such'
p746
aS'as'
p747
aa(lp748
S'They'
p749
aS'halt'
p750
aS'or'
p751
aa(lp752
S'The'
p753
aS'talk'
p754
aS'about'
p755
aa(lp756
S'There'
p757
aS'is'
p758
aS'also'
p759
aa(lp760
S'Outside'
p761
aS'of'
p762
aS'organized'
p763
aa(lp764
S'A'
aS'temporary'
p765
aS'injunction'
p766
aa(lp767
S'Organized'
p768
aS'labor'
p769
aS'is'
p770
aa(lp771
S'Its'
p772
aS'discontent'
p773
aS'has'
p774
aa(lp775
S'Such'
p776
aS'proposals'
p777
aS'as'
p778
aa(lp779
S'During'
p780
aS'the'
p781
aS'last'
p782
aa(lp783
S'The'
p784
aS'power'
p785
aS'of'
p786
aa(lp787
S'But'
p788
aS'safeguards'
p789
aS'should'
p790
aa(lp791
S'I'
aS'believe'
p792
aS'that'
p793
aa(lp794
S'Decisions'
p795
aS'should'
p796
aS'be'
p797
aa(lp798
S'The'
p799
aS'chief'
p800
aS'lawmakers'
p801
aa(lp802
S'Every'
p803
aS'time'
p804
aS'they'
p805
aa(lp806
S'The'
p807
aS'decisions'
p808
aS'of'
p809
aa(lp810
S'Of'
p811
aS'course'
p812
aS'a'
aa(lp813
S'The'
p814
aS'judge'
p815
aS'who'
p816
aa(lp817
S'But'
p818
aS'it'
p819
aS'is'
p820
aa(lp821
S'The'
p822
aS'legislators'
p823
aS'and'
p824
aa(lp825
S'The'
p826
aS'judges'
p827
aS'are'
p828
aa(lp829
S'Their'
p830
aS'function'
p831
aS'is'
p832
aa(lp833
S'The'
p834
aS'legislators'
p835
aS'are'
p836
aa(lp837
S'We'
p838
aS'stand'
p839
aS'aloof'
p840
aa(lp841
S'The'
p842
aS'courts'
p843
aS'are'
p844
aa(lp845
S'Such'
p846
aS'lawfully'
p847
aS'expressed'
p848
aa(lp849
S'Anything'
p850
aS'like'
p851
aS'frivolity'
p852
aa(lp853
S'To'
p854
aS'protest'
p855
aS'against'
p856
aa(lp857
S'But'
p858
aS'for'
p859
aS'the'
p860
aa(lp861
S'The'
p862
aS'people'
p863
aS'should'
p864
aa(lp865
S'A'
aS'law'
p866
aS'may'
p867
aa(lp868
S'Under'
p869
aS'such'
p870
aS'a'
aa(lp871
S'For'
p872
aS'many'
p873
aS'of'
p874
aa(lp875
S'It'
p876
aS'is'
p877
aS'discreditable'
p878
aa(lp879
S'The'
p880
aS'result'
p881
aS'is'
p882
aa(lp883
S'For'
p884
aS'much'
p885
aS'of'
p886
aa(lp887
S'We'
p888
aS'who'
p889
aS'make'
p890
aa(lp891
S'But'
p892
aS'there'
p893
aS'is'
p894
aa(lp895
S'The'
p896
aS'chief'
p897
aS'breakdown'
p898
aa(lp899
S'Every'
p900
aS'new'
p901
aS'social'
p902
aa(lp903
S'During'
p904
aS'the'
p905
aS'lifetime'
p906
aa(lp907
S'The'
p908
aS'immense'
p909
aS'growth'
p910
aa(lp911
S'Marked'
p912
aS'inefficiency'
p913
aS'has'
p914
aa(lp915
S'The'
p916
aS'huge'
p917
aS'wealth'
p918
aa(lp919
S'A'
aS'certain'
p920
aS'type'
p921
aa(lp922
S'Corporations'
p923
aS'are'
p924
aS'necessary'
p925
aa(lp926
S'They'
p927
aS'have'
p928
aS'been'
p929
aa(lp930
S'The'
p931
aS'chief'
p932
aS'offender'
p933
aa(lp934
S'Every'
p935
aS'executive'
p936
aS'head'
p937
aa(lp938
S'The'
p939
aS'several'
p940
aS'legislatures'
p941
aa(lp942
S'Our'
p943
aS'great'
p944
aS'clusters'
p945
aa(lp946
S'A'
aS'very'
p947
aS'striking'
p948
aa(lp949
S'In'
p950
aS'the'
p951
aS'cases'
p952
aa(lp953
S'It'
p954
aS'was'
p955
aS'surely'
p956
aa(lp957
S'Real'
p958
aS'damage'
p959
aS'has'
p960
aa(lp961
S'Control'
p962
aS'over'
p963
aS'the'
p964
aa(lp965
S'The'
p966
aS'courts'
p967
aS'hold'
p968
aa(lp969
S'Respect'
p970
aS'for'
p971
aS'the'
p972
aa(lp973
S'It'
p974
aS'is'
p975
aS'an'
p976
aa(lp977
S'Our'
p978
aS'judges'
p979
aS'should'
p980
aa(lp981
S'On'
p982
aS'an'
p983
aS'average'
p984
aa(lp985
S'But'
p986
aS'we'
p987
aS'must'
p988
aa(lp989
S'When'
p990
aS'a'
aS'president'
p991
aa(lp992
S'With'
p993
aS'a'
aS'judge'
p994
aa(lp995
S'Under'
p996
aS'ordinary'
p997
aS'conditions'
p998
aa(lp999
S'It'
p1000
aS'is'
p1001
aS'the'
p1002
aa(lp1003
S'Any'
p1004
aS'remedy'
p1005
aS'applied'
p1006
aa(lp1007
S'It'
p1008
aS'is'
p1009
aS'far'
p1010
aa(lp1011
S'In'
p1012
aS'no'
p1013
aS'other'
p1014
aa(lp1015
S'All'
p1016
aS'that'
p1017
aS'is'
p1018
aa(lp1019
S'Let'
p1020
aS'them'
p1021
aS'exercise'
p1022
aa(lp1023
S'If'
p1024
aS'there'
p1025
aS'is'
p1026
aa(lp1027
S'There'
p1028
aS'are'
p1029
aS'of'
p1030
aa(lp1031
S'Any'
p1032
aS'really'
p1033
aS'civilized'
p1034
aa(lp1035
S'Just'
p1036
aS'as'
p1037
aS'a'
aa(lp1038
S'There'
p1039
aS'are'
p1040
aS'small'
p1041
aa(lp1042
S'It'
p1043
aS'matters'
p1044
aS'not'
p1045
aa(lp1046
S'It'
p1047
aS'is'
p1048
aS'difficult'
p1049
aa(lp1050
S'Thanks'
p1051
aS'to'
p1052
aS'our'
p1053
aa(lp1054
S'But'
p1055
aS'we'
p1056
aS'can'
p1057
aa(lp1058
S'All'
p1059
aS'serious'
p1060
aS'students'
p1061
aa(lp1062
S'The'
p1063
aS'similar'
p1064
aS'damage'
p1065
aa(lp1066
S'A'
aS'recent'
p1067
aS'investigation'
p1068
aa(lp1069
S'So'
p1070
aS'important'
p1071
aS'are'
p1072
aa(lp1073
S'They'
p1074
aS'show'
p1075
aS'in'
p1076
aa(lp1077
S'Not'
p1078
aS'many'
p1079
aS'centuries'
p1080
aa(lp1081
S'We'
p1082
aS'know'
p1083
aS'this'
p1084
aa(lp1085
S'Now'
p1086
aS'there'
p1087
aS'is'
p1088
aa(lp1089
S'As'
p1090
aS'an'
p1091
aS'illustration'
p1092
aa(lp1093
S'But'
p1094
aS'we'
p1095
aS'do'
p1096
aa(lp1097
S'The'
p1098
aS'dry'
p1099
aS'wells'
p1100
aa(lp1101
S'Wherever'
p1102
aS'the'
p1103
aS'native'
p1104
aa(lp1105
S'All'
p1106
aS'natural'
p1107
aS'factors'
p1108
aa(lp1109
S'Not'
p1110
aS'the'
p1111
aS'slightest'
p1112
aa(lp1113
S'Doubtless'
p1114
aS'for'
p1115
aS'many'
p1116
aa(lp1117
S'But'
p1118
aS'there'
p1119
aS'came'
p1120
aa(lp1121
S'Every'
p1122
aS'morning'
p1123
aS'men'
p1124
aa(lp1125
S'The'
p1126
aS'big'
p1127
aS'trees'
p1128
aa(lp1129
S'In'
p1130
aS'the'
p1131
aS'total'
p1132
aa(lp1133
S'This'
p1134
aS'is'
p1135
aS'just'
p1136
aa(lp1137
S'The'
p1138
aS'forest'
p1139
aS'can'
p1140
aa(lp1141
S'The'
p1142
aS'lesson'
p1143
aS'of'
p1144
aa(lp1145
S'Denudation'
p1146
aS'leaves'
p1147
aS'naked'
p1148
aa(lp1149
S'When'
p1150
aS'the'
p1151
aS'soil'
p1152
aa(lp1153
S'This'
p1154
aS'ruthless'
p1155
aS'destruction'
p1156
aa(lp1157
S'In'
p1158
aS'northern'
p1159
aS'China'
p1160
aa(lp1161
S'Not'
p1162
aS'only'
p1163
aS'have'
p1164
aa(lp1165
S'The'
p1166
aS'terrible'
p1167
aS'consequence'
p1168
aa(lp1169
S'Many'
p1170
aS'centuries'
p1171
aS'would'
p1172
aa(lp1173
S'In'
p1174
aS'consequence'
p1175
aS'the'
p1176
aa(lp1177
S'The'
p1178
aS'climate'
p1179
aS'has'
p1180
aa(lp1181
S'It'
p1182
aS'has'
p1183
aS'changed'
p1184
aa(lp1185
S'The'
p1186
aS'great'
p1187
aS'masses'
p1188
aa(lp1189
S'Now'
p1190
aS'that'
p1191
aS'there'
p1192
aa(lp1193
S'That'
p1194
aS'everything'
p1195
aS'dries'
p1196
aa(lp1197
S'In'
p1198
aS'addition'
p1199
aS'to'
p1200
aa(lp1201
S'Formerly'
p1202
aS'they'
p1203
aS'were'
p1204
aa(lp1205
S'They'
p1206
aS'have'
p1207
aS'now'
p1208
aa(lp1209
S'The'
p1210
aS'sand'
p1211
aS'and'
p1212
aa(lp1213
S'The'
p1214
aS'cities'
p1215
aS'have'
p1216
aa(lp1217
S'There'
p1218
aS'is'
p1219
aS'testimony'
p1220
aa(lp1221
S'The'
p1222
aS'level'
p1223
aS'of'
p1224
aa(lp1225
S'Almost'
p1226
aS'all'
p1227
aS'the'
p1228
aa(lp1229
S'The'
p1230
aS'journey'
p1231
aS'from'
p1232
aa(lp1233
S'In'
p1234
aS'northern'
p1235
aS'China'
p1236
aa(lp1237
S'There'
p1238
aS'are'
p1239
aS'certain'
p1240
aa(lp1241
S'The'
p1242
aS'accompanying'
p1243
aS'cuts'
p1244
aa(lp1245
S'The'
p1246
aS'photographs'
p1247
aS'also'
p1248
aa(lp1249
S'One'
p1250
aS'of'
p1251
aS'the'
p1252
aa(lp1253
S'Now'
p1254
aS'the'
p1255
aS'floods'
p1256
aa(lp1257
S'Another'
p1258
aS'photograph'
p1259
aS'shows'
p1260
aa(lp1261
S'Another'
p1262
aS'shows'
p1263
aS'a'
aa(lp1264
S'Only'
p1265
aS'some'
p1266
aS'scrub'
p1267
aa(lp1268
S'Yet'
p1269
aS'another'
p1270
aS'shows'
p1271
aa(lp1272
S'What'
p1273
aS'has'
p1274
aS'thus'
p1275
aa(lp1276
S'Nothing'
p1277
aS'should'
p1278
aS'be'
p1279
aa(lp1280
S'Action'
p1281
aS'should'
p1282
aS'be'
p1283
aa(lp1284
S'We'
p1285
aS'have'
p1286
aS'spent'
p1287
aa(lp1288
S'This'
p1289
aS'condition'
p1290
aS'is'
p1291
aa(lp1292
S'It'
p1293
aS'is'
p1294
aS'poor'
p1295
aa(lp1296
S'Inquiry'
p1297
aS'into'
p1298
aS'the'
p1299
aa(lp1300
S'A'
aS'striking'
p1301
aS'instance'
p1302
aa(lp1303
S'The'
p1304
aS'remedy'
p1305
aS'lies'
p1306
aa(lp1307
S'In'
p1308
aS'a'
aS'report'
p1309
aa(lp1310
S'The'
p1311
aS'present'
p1312
aS'methods'
p1313
aa(lp1314
S'What'
p1315
aS'is'
p1316
aS'virtually'
p1317
aa(lp1318
S'The'
p1319
aS'military'
p1320
aS'engineers'
p1321
aa(lp1322
S'Prominent'
p1323
aS'officers'
p1324
aS'of'
p1325
aa(lp1326
S'This'
p1327
aS'position'
p1328
aS'is'
p1329
aa(lp1330
S'A'
aS'physician'
p1331
aS'who'
p1332
aa(lp1333
S'So'
p1334
aS'with'
p1335
aS'the'
p1336
aa(lp1337
S'Until'
p1338
aS'the'
p1339
aS'work'
p1340
aa(lp1341
S'These'
p1342
aS'needs'
p1343
aS'should'
p1344
aa(lp1345
S'The'
p1346
aS'plan'
p1347
aS'which'
p1348
aa(lp1349
S'Under'
p1350
aS'such'
p1351
aS'a'
aa(lp1352
S'Funds'
p1353
aS'should'
p1354
aS'be'
p1355
aa(lp1356
S'The'
p1357
aS'essential'
p1358
aS'thing'
p1359
aa(lp1360
S'We'
p1361
aS'should'
p1362
aS'have'
p1363
aa(lp1364
S'The'
p1365
aS'time'
p1366
aS'for'
p1367
aa(lp1368
S'The'
p1369
aS'country'
p1370
aS'demands'
p1371
aa(lp1372
S'I'
aS'urge'
p1373
aS'that'
p1374
aa(lp1375
S'The'
p1376
aS'Congress'
p1377
aS'should'
p1378
aa(lp1379
S'Such'
p1380
aS'a'
aS'change'
p1381
aa(lp1382
S'The'
p1383
aS'need'
p1384
aS'for'
p1385
aa(lp1386
S'I'
aS'am'
p1387
aS'happy'
p1388
aa(lp1389
S'I'
aS'had'
p1390
aS'occasion'
p1391
aa(lp1392
S'The'
p1393
aS'law'
p1394
aS'of'
p1395
aa(lp1396
S'The'
p1397
aS'pure'
p1398
aS'food'
p1399
aa(lp1400
S'It'
p1401
aS'has'
p1402
aS'been'
p1403
aa(lp1404
S'The'
p1405
aS'last'
p1406
aS'remaining'
p1407
aa(lp1408
S'It'
p1409
aS'seems'
p1410
aS'clear'
p1411
aa(lp1412
S'Last'
p1413
aS'year'
p1414
aS'an'
p1415
aa(lp1416
S'It'
p1417
aS'is'
p1418
aS'not'
p1419
aa(lp1420
S'If'
p1421
aS'deliberately'
p1422
aS'introduced'
p1423
aa(lp1424
S'It'
p1425
aS'forbade'
p1426
aS'the'
p1427
aa(lp1428
S'To'
p1429
aS'these'
p1430
aS'practices'
p1431
aa(lp1432
S'These'
p1433
aS'practices'
p1434
aS'have'
p1435
aa(lp1436
S'These'
p1437
aS'practices'
p1438
aS'have'
p1439
aa(lp1440
S'The'
p1441
aS'amendment'
p1442
aS'in'
p1443
aa(lp1444
S'It'
p1445
aS'forbids'
p1446
aS'him'
p1447
aa(lp1448
S'It'
p1449
aS'prevents'
p1450
aS'the'
p1451
aa(lp1452
S'In'
p1453
aS'its'
p1454
aS'present'
p1455
aa(lp1456
S'The'
p1457
aS'chief'
p1458
aS'argument'
p1459
aa(lp1460
S'Very'
p1461
aS'little'
p1462
aS'of'
p1463
aa(lp1464
S'I'
aS'do'
p1465
aS'not'
p1466
aa(lp1467
S'But'
p1468
aS'if'
p1469
aS'this'
p1470
aa(lp1471
S'It'
p1472
aS'would'
p1473
aS'be'
p1474
aa(lp1475
S'POSTAL'
p1476
aS'SAVINGS'
p1477
aS'BANKS'
p1478
aa(lp1479
S'I'
aS'again'
p1480
aS'renew'
p1481
aa(lp1482
S'The'
p1483
aS'object'
p1484
aS'is'
p1485
aa(lp1486
S'The'
p1487
aS'result'
p1488
aS'is'
p1489
aa(lp1490
S'It'
p1491
aS'is'
p1492
aS'believed'
p1493
aa(lp1494
S'While'
p1495
aS'there'
p1496
aS'are'
p1497
aa(lp1498
S'Postal'
p1499
aS'savings'
p1500
aS'banks'
p1501
aa(lp1502
S'In'
p1503
aS'my'
p1504
aS'last'
p1505
aa(lp1506
S'The'
p1507
aS'establishment'
p1508
aS'of'
p1509
aa(lp1510
S'An'
p1511
aS'amendment'
p1512
aS'was'
p1513
aa(lp1514
S'It'
p1515
aS'would'
p1516
aS'seem'
p1517
aa(lp1518
S'The'
p1519
aS'share'
p1520
aS'that'
p1521
aa(lp1522
S'The'
p1523
aS'immediate'
p1524
aS'responsibility'
p1525
aa(lp1526
S'The'
p1527
aS'National'
p1528
aS'Bureau'
p1529
aa(lp1530
S'Its'
p1531
aS'purpose'
p1532
aS'is'
p1533
aa(lp1534
S'With'
p1535
aS'the'
p1536
aS'limited'
p1537
aa(lp1538
S'The'
p1539
aS'appropriations'
p1540
aS'for'
p1541
aa(lp1542
S'It'
p1543
aS'is'
p1544
aS'an'
p1545
aa(lp1546
S'I'
aS'earnestly'
p1547
aS'recommend'
p1548
aa(lp1549
S'This'
p1550
aS'recommendation'
p1551
aS'is'
p1552
aa(lp1553
S'I'
aS'strongly'
p1554
aS'urge'
p1555
aa(lp1556
S'The'
p1557
aS'supervisors'
p1558
aS'and'
p1559
aa(lp1560
S'I'
aS'commend'
p1561
aS'to'
p1562
aa(lp1563
S'It'
p1564
aS'is'
p1565
aS'highly'
p1566
aa(lp1567
S'Through'
p1568
aS'the'
p1569
aS'practical'
p1570
aa(lp1571
S'This'
p1572
aS'is'
p1573
aS'but'
p1574
aa(lp1575
S'The'
p1576
aS'dangers'
p1577
aS'to'
p1578
aa(lp1579
S'There'
p1580
aS'are'
p1581
aS'numerous'
p1582
aa(lp1583
S'The'
p1584
aS'recent'
p1585
aS'International'
p1586
aa(lp1587
S'This'
p1588
aS'Nation'
p1589
aS'can'
p1590
aa(lp1591
S'REDISTRIBUTION'
p1592
aS'OF'
p1593
aS'BUREAUS'
p1594
aa(lp1595
S'The'
p1596
aS'first'
p1597
aS'legislative'
p1598
aa(lp1599
S'I'
aS'therefore'
p1600
aS'urgently'
p1601
aa(lp1602
S'GOVERNMENT'
p1603
aS'PRINTING'
p1604
aS'OFFICE'
p1605
aa(lp1606
S'I'
aS'recommend'
p1607
aS'that'
p1608
aa(lp1609
S'At'
p1610
aS'present'
p1611
aS'this'
p1612
aa(lp1613
S'The'
p1614
aS'advantage'
p1615
aS'of'
p1616
aa(lp1617
S'INDEPENDENT'
p1618
aS'BUREAUS'
p1619
aS'AND'
p1620
aa(lp1621
S'Economy'
p1622
aS'and'
p1623
aS'sound'
p1624
aa(lp1625
S'It'
p1626
aS'is'
p1627
aS'unwise'
p1628
aa(lp1629
S'I'
aS'advocate'
p1630
aS'the'
p1631
aa(lp1632
S'This'
p1633
aS'should'
p1634
aS'be'
p1635
aa(lp1636
S'The'
p1637
aS'people'
p1638
aS'of'
p1639
aa(lp1640
S'The'
p1641
aS'only'
p1642
aS'alternative'
p1643
aa(lp1644
S'I'
aS'call'
p1645
aS'the'
p1646
aa(lp1647
S'On'
p1648
aS'the'
p1649
aS'Great'
p1650
aa(lp1651
S'All'
p1652
aS'these'
p1653
aS'political'
p1654
aa(lp1655
S'The'
p1656
aS'case'
p1657
aS'is'
p1658
aa(lp1659
S'But'
p1660
aS'the'
p1661
aS'problem'
p1662
aa(lp1663
S'The'
p1664
aS'salmon'
p1665
aS'fisheries'
p1666
aa(lp1667
S'At'
p1668
aS'the'
p1669
aS'moment'
p1670
aa(lp1671
S'Meanwhile'
p1672
aS'very'
p1673
aS'few'
p1674
aa(lp1675
S'The'
p1676
aS'fisheries'
p1677
aS'of'
p1678
aa(lp1679
S'For'
p1680
aS'this'
p1681
aS'there'
p1682
aa(lp1683
S'In'
p1684
aS'this'
p1685
aS'case'
p1686
aa(lp1687
S'In'
p1688
aS'this'
p1689
aS'as'
p1690
aa(lp1691
S'FISHERIES'
p1692
aS'AND'
p1693
aS'FUR'
p1694
aa(lp1695
S'The'
p1696
aS'federal'
p1697
aS'statute'
p1698
aa(lp1699
S'New'
p1700
aS'federal'
p1701
aS'fish'
p1702
aa(lp1703
S'The'
p1704
aS'administration'
p1705
aS'of'
p1706
aa(lp1707
S'We'
p1708
aS'have'
p1709
aS'behaved'
p1710
aa(lp1711
S'The'
p1712
aS'commercial'
p1713
aS'and'
p1714
aa(lp1715
S'No'
p1716
aS'other'
p1717
aS'section'
p1718
aa(lp1719
S'These'
p1720
aS'countries'
p1721
aS'will'
p1722
aa(lp1723
S'The'
p1724
aS'International'
p1725
aS'Bureau'
p1726
aa(lp1727
S'It'
p1728
aS'is'
p1729
aS'an'
p1730
aa(lp1731
S'The'
p1732
aS'work'
p1733
aS'on'
p1734
aa(lp1735
S'No'
p1736
aS'task'
p1737
aS'of'
p1738
aa(lp1739
S'The'
p1740
aS'men'
p1741
aS'on'
p1742
aa(lp1743
S'OCEAN'
p1744
aS'MAIL'
p1745
aS'LINERS'
p1746
aa(lp1747
S'I'
aS'again'
p1748
aS'recommend'
p1749
aa(lp1750
S'The'
p1751
aS'creation'
p1752
aS'of'
p1753
aa(lp1754
S'It'
p1755
aS'should'
p1756
aS'precede'
p1757
aa(lp1758
S'Even'
p1759
aS'under'
p1760
aS'favorable'
p1761
aa(lp1762
S'Accordingly'
p1763
aS'I'
aS'urge'
p1764
aa(lp1765
S'I'
aS'call'
p1766
aS'particular'
p1767
aa(lp1768
S'The'
p1769
aS'importance'
p1770
aS'of'
p1771
aa(lp1772
S'In'
p1773
aS'recent'
p1774
aS'years'
p1775
aa(lp1776
S'To'
p1777
aS'aid'
p1778
aS'these'
p1779
aa(lp1780
S'The'
p1781
aS'coastwise'
p1782
aS'shipping'
p1783
aa(lp1784
S'We'
p1785
aS'have'
p1786
aS'begun'
p1787
aa(lp1788
S'It'
p1789
aS'is'
p1790
aS'useless'
p1791
aa(lp1792
S'One'
p1793
aS'thing'
p1794
aS'to'
p1795
aa(lp1796
S'This'
p1797
aS'is'
p1798
aS'true'
p1799
aa(lp1800
S'Real'
p1801
aS'progress'
p1802
aS'toward'
p1803
aa(lp1804
S'The'
p1805
aS'gathering'
p1806
aS'of'
p1807
aa(lp1808
S'Hitherto'
p1809
aS'this'
p1810
aS'Philippine'
p1811
aa(lp1812
S'The'
p1813
aS'Filipino'
p1814
aS'people'
p1815
aa(lp1816
S'I'
aS'hope'
p1817
aS'and'
p1818
aa(lp1819
S'But'
p1820
aS'it'
p1821
aS'is'
p1822
aa(lp1823
S'All'
p1824
aS'we'
p1825
aS'can'
p1826
aa(lp1827
S'If'
p1828
aS'we'
p1829
aS'had'
p1830
aa(lp1831
S'We'
p1832
aS'have'
p1833
aS'acted'
p1834
aa(lp1835
S'We'
p1836
aS'have'
p1837
aS'given'
p1838
aa(lp1839
S'At'
p1840
aS'the'
p1841
aS'present'
p1842
aa(lp1843
S'We'
p1844
aS'must'
p1845
aS'be'
p1846
aa(lp1847
S'But'
p1848
aS'we'
p1849
aS'can'
p1850
aa(lp1851
S'Under'
p1852
aS'the'
p1853
aS'present'
p1854
aa(lp1855
S'Our'
p1856
aS'people'
p1857
aS'in'
p1858
aa(lp1859
S'I'
aS'trust'
p1860
aS'that'
p1861
aa(lp1862
S'But'
p1863
aS'no'
p1864
aS'one'
p1865
aa(lp1866
S'It'
p1867
aS'would'
p1868
aS'be'
p1869
aa(lp1870
S'I'
aS'again'
p1871
aS'recommend'
p1872
aa(lp1873
S'In'
p1874
aS'Cuba'
p1875
aS'our'
p1876
aa(lp1877
S'Our'
p1878
aS'occupation'
p1879
aS'on'
p1880
aa(lp1881
S'Our'
p1882
aS'earnest'
p1883
aS'hope'
p1884
aa(lp1885
S'We'
p1886
aS'will'
p1887
aS'gladly'
p1888
aa(lp1889
S'The'
p1890
aS'Japanese'
p1891
aS'Government'
p1892
aa(lp1893
S'The'
p1894
aS'American'
p1895
aS'commissioners'
p1896
aa(lp1897
S'Not'
p1898
aS'since'
p1899
aS'the'
p1900
aa(lp1901
S'The'
p1902
aS'extraordinary'
p1903
aS'leap'
p1904
aa(lp1905
S'This'
p1906
aS'exposition'
p1907
aS'will'
p1908
aa(lp1909
S'It'
p1910
aS'is'
p1911
aS'the'
p1912
aa(lp1913
S'The'
p1914
aS'United'
p1915
aS'States'
p1916
aa(lp1917
S'I'
aS'take'
p1918
aS'this'
p1919
aa(lp1920
S'The'
p1921
aS'American'
p1922
aS'Government'
p1923
aa(lp1924
S'As'
p1925
aS'regards'
p1926
aS'the'
p1927
aa(lp1928
S'No'
p1929
aS'man'
p1930
aS'should'
p1931
aa(lp1932
S'It'
p1933
aS'is'
p1934
aS'a'
aa(lp1935
S'The'
p1936
aS'higher'
p1937
aS'places'
p1938
aa(lp1939
S'In'
p1940
aS'the'
p1941
aS'stress'
p1942
aa(lp1943
S'As'
p1944
aS'a'
aS'matter'
p1945
aa(lp1946
S'The'
p1947
aS'scope'
p1948
aS'of'
p1949
aa(lp1950
S'But'
p1951
aS'this'
p1952
aS'plan'
p1953
aa(lp1954
S'Officers'
p1955
aS'who'
p1956
aS'fail'
p1957
aa(lp1958
S'General'
p1959
aS'officers'
p1960
aS'should'
p1961
aa(lp1962
S'A'
aS'bill'
p1963
aS'is'
p1964
aa(lp1965
S'The'
p1966
aS'cavalry'
p1967
aS'arm'
p1968
aa(lp1969
S'This'
p1970
aS'is'
p1971
aS'an'
p1972
aa(lp1973
S'The'
p1974
aS'cavalry'
p1975
aS'is'
p1976
aa(lp1977
S'At'
p1978
aS'present'
p1979
aS'both'
p1980
aa(lp1981
S'Especial'
p1982
aS'attention'
p1983
aS'should'
p1984
aa(lp1985
S'A'
aS'general'
p1986
aS'service'
p1987
aa(lp1988
S'As'
p1989
aS'things'
p1990
aS'are'
p1991
aa(lp1992
S'Now'
p1993
aS'that'
p1994
aS'the'
p1995
aa(lp1996
S'It'
p1997
aS'should'
p1998
aS'be'
p1999
aa(lp2000
S'The'
p2001
aS'continuous'
p2002
aS'services'
p2003
aa(lp2004
S'Such'
p2005
aS'officers'
p2006
aS'must'
p2007
aa(lp2008
S'But'
p2009
aS'the'
p2010
aS'detailing'
p2011
aa(lp2012
S'A'
aS'bill'
p2013
aS'is'
p2014
aa(lp2015
S'In'
p2016
aS'case'
p2017
aS'of'
p2018
aa(lp2019
S'There'
p2020
aS'should'
p2021
aS'be'
p2022
aa(lp2023
S'Congressional'
p2024
aS'assistance'
p2025
aS'should'
p2026
aa(lp2027
S'While'
p2028
aS'teams'
p2029
aS'representing'
p2030
aa(lp2031
S'To'
p2032
aS'meet'
p2033
aS'this'
p2034
aa(lp2035
S'Fit'
p2036
aS'to'
p2037
aS'hold'
p2038
aa(lp2039
S'The'
p2040
aS'first'
p2041
aS'step'
p2042
aa(lp2043
S'I'
aS'approve'
p2044
aS'the'
p2045
aa(lp2046
S'It'
p2047
aS'is'
p2048
aS'desirable'
p2049
aa(lp2050
S'The'
p2051
aS'North'
p2052
aS'Dakota'
p2053
aa(lp2054
S'The'
p2055
aS'four'
p2056
aS'vessels'
p2057
aa(lp2058
S'It'
p2059
aS'will'
p2060
aS'be'
p2061
aa(lp2062
S'All'
p2063
aS'the'
p2064
aS'vessels'
p2065
aa(lp2066
S'I'
aS'most'
p2067
aS'earnestly'
p2068
aa(lp2069
S'There'
p2070
aS'is'
p2071
aS'literally'
p2072
aa(lp2073
S'The'
p2074
aS'Navy'
p2075
aS'should'
p2076
aa(lp2077
S'Such'
p2078
aS'military'
p2079
aS'efficiency'
p2080
aa(lp2081
S'The'
p2082
aS'Secretary'
p2083
aS'must'
p2084
aa(lp2085
S'A'
aS'system'
p2086
aS'of'
p2087
aa(lp2088
S'It'
p2089
aS'is'
p2090
aS'out'
p2091
aa(lp2092
S'Our'
p2093
aS'men'
p2094
aS'come'
p2095
aa(lp2096
S'Two'
p2097
aS'hospital'
p2098
aS'ships'
p2099
aa(lp2100
S'The'
p2101
aS'actual'
p2102
aS'experience'
p2103
aa(lp2104
S'As'
p2105
aS'was'
p2106
aS'to'
p2107
aa(lp2108
S'It'
p2109
aS'is'
p2110
aS'as'
p2111
aa(lp2112
S'This'
p2113
aS'ought'
p2114
aS'to'
p2115
aa(lp2116
S'Nothing'
p2117
aS'better'
p2118
aS'for'
p2119
aa(lp2120
S'The'
p2121
aS'improvement'
p2122
aS'of'
p2123
aa(lp2124
S'The'
p2125
aS'American'
p2126
aS'people'
p2127
aa(lp2128
S'I'
aS'do'
p2129
aS'not'
p2130
aa(lp2131
S'I'
aS'believe'
p2132
aS'that'
p2133
aa(lp2134
S'It'
p2135
aS'is'
p2136
aS'absurd'
p2137
aa(lp2138
S'In'
p2139
aS'the'
p2140
aS'academy'
p2141
aa(lp2142
S'The'
p2143
aS'Board'
p2144
aS'of'
p2145
aa(lp2146
S'THEODORE'
p2147
aS'ROOSEVELT'
p2148
aS'THE'
p2149
aa.