(lp1
(lp2
S'I'
aS'come'
p3
aS'before'
p4
aa(lp5
S'Four'
p6
aS'years'
p7
aS'ago'
p8
aa(lp9
S'Out'
p10
aS'of'
p11
aS'that'
p12
aa(lp13
S'Tonight'
p14
aS'America'
p15
aS'is'
p16
aa(lp17
S'We'
p18
aS'believe'
p19
aS'faith'
p20
aa(lp21
S'Our'
p22
aS'progress'
p23
aS'began'
p24
aa(lp25
S'Four'
p26
aS'years'
p27
aS'ago'
p28
aa(lp29
S'We'
p30
aS'did'
p31
aS'what'
p32
aa(lp33
S'Tonight'
p34
aS'we'
p35
aS'can'
p36
aa(lp37
S'New'
p38
aS'freedom'
p39
aS'in'
p40
aa(lp41
S'For'
p42
aS'an'
p43
aS'America'
p44
aa(lp45
S'For'
p46
aS'an'
p47
aS'America'
p48
aa(lp49
S'For'
p50
aS'an'
p51
aS'America'
p52
aa(lp53
S'For'
p54
aS'an'
p55
aS'America'
p56
aa(lp57
S'We'
p58
aS'have'
p59
aS'begun'
p60
aa(lp61
S'Proverbs'
p62
aS'tell'
p63
aS'us'
p64
aa(lp65
S'When'
p66
aS'asked'
p67
aS'what'
p68
aa(lp69
S'We'
p70
aS'honor'
p71
aS'the'
p72
aa(lp73
S'My'
p74
aS'fellow'
p75
aS'citizens'
p76
aa(lp77
S'The'
p78
aS'time'
p79
aS'has'
p80
aa(lp81
S'Let'
p82
aS'us'
p83
aS'begin'
p84
aa(lp85
S'There'
p86
aS'are'
p87
aS'no'
p88
aa(lp89
S'When'
p90
aS'I'
aS'was'
p91
aa(lp92
S'In'
p93
aS'the'
p94
aS'late'
p95
aa(lp96
S'They'
p97
aS'now'
p98
aS'produce'
p99
aa(lp100
S'New'
p101
aS'laser'
p102
aS'techniques'
p103
aa(lp104
S'Our'
p105
aS'automobile'
p106
aS'industry'
p107
aa(lp108
S'We'
p109
aS'stand'
p110
aS'on'
p111
aa(lp112
S'Our'
p113
aS'economy'
p114
aS'is'
p115
aa(lp116
S'And'
p117
aS'that'
p118
aS'word'
p119
aa(lp120
S'Let'
p121
aS'us'
p122
aS'move'
p123
aa(lp124
S'Last'
p125
aS'year'
p126
aS'I'
aa(lp127
S'We'
p128
aS'have'
p129
aS'cut'
p130
aa(lp131
S'Exclusions'
p132
aS'and'
p133
aS'exemptions'
p134
aa(lp135
S'The'
p136
aS'Treasury'
p137
aS'Department'
p138
aa(lp139
S'One'
p140
aS'thing'
p141
aS'that'
p142
aa(lp143
S'We'
p144
aS'will'
p145
aS'not'
p146
aa(lp147
S'We'
p148
aS'will'
p149
aS'reduce'
p150
aa(lp151
S'We'
p152
aS'will'
p153
aS'propose'
p154
aa(lp155
S'And'
p156
aS'we'
p157
aS'will'
p158
aa(lp159
S'To'
p160
aS'encourage'
p161
aS'opportunity'
p162
aa(lp163
S'To'
p164
aS'restore'
p165
aS'fairness'
p166
aa(lp167
S'We'
p168
aS'will'
p169
aS'call'
p170
aa(lp171
S'So'
p172
aS'let'
p173
aS'us'
p174
aa(lp175
S'Tax'
p176
aS'simplification'
p177
aS'will'
p178
aa(lp179
S'But'
p180
aS'a'
aS'second'
p181
aa(lp182
S'It'
p183
aS'is'
p184
aS'time'
p185
aa(lp186
S'This'
p187
aS'government'
p188
aS'will'
p189
aa(lp190
S'But'
p191
aS'policies'
p192
aS'that'
p193
aa(lp194
S'Despite'
p195
aS'our'
p196
aS'strides'
p197
aa(lp198
S'We'
p199
aS'have'
p200
aS'repeatedly'
p201
aa(lp202
S'This'
p203
aS'legislation'
p204
aS'is'
p205
aa(lp206
S'Let'
p207
aS'us'
p208
aS'place'
p209
aa(lp210
S'Nor'
p211
aS'must'
p212
aS'we'
p213
aa(lp214
S'We'
p215
aS'can'
p216
aS'help'
p217
aa(lp218
S'Credits'
p219
aS'in'
p220
aS'education'
p221
aa(lp222
S'Our'
p223
aS'administration'
p224
aS'is'
p225
aa(lp226
S'The'
p227
aS'Federal'
p228
aS'Government'
p229
aa(lp230
S'But'
p231
aS'States'
p232
aS'and'
p233
aa(lp234
S'Let'
p235
aS'us'
p236
aS'resolve'
p237
aa(lp238
S'There'
p239
aS'are'
p240
aS'some'
p241
aa(lp242
S'More'
p243
aS'businesses'
p244
aS'will'
p245
aa(lp246
S'The'
p247
aS'best'
p248
aS'way'
p249
aa(lp250
S'Each'
p251
aS'added'
p252
aS'percentage'
p253
aa(lp254
S'To'
p255
aS'move'
p256
aS'steadily'
p257
aa(lp258
S'We'
p259
aS'will'
p260
aS'not'
p261
aa(lp262
S'We'
p263
aS'must'
p264
aS'make'
p265
aa(lp266
S'In'
p267
aS'our'
p268
aS'fiscal'
p269
aa(lp270
S'It'
p271
aS'must'
p272
aS'not'
p273
aa(lp274
S'Growth'
p275
aS'of'
p276
aS'our'
p277
aa(lp278
S'National'
p279
aS'security'
p280
aS'is'
p281
aa(lp282
S'Today'
p283
aS'it'
p284
aS'takes'
p285
aa(lp286
S'Spending'
p287
aS'for'
p288
aS'defense'
p289
aa(lp290
S'Our'
p291
aS'farm'
p292
aS'program'
p293
aa(lp294
S'Yet'
p295
aS'I'
aS'know'
p296
aa(lp297
S'We'
p298
aS'can'
p299
aS'help'
p300
aa(lp301
S'In'
p302
aS'the'
p303
aS'long'
p304
aa(lp305
S'And'
p306
aS'I'
aS'ask'
p307
aa(lp308
S'And'
p309
aS'I'
aS'ask'
p310
aa(lp311
S'Senator'
p312
aS'Mattingly'
p313
aS'has'
p314
aa(lp315
S'I'
aS'hope'
p316
aS'you'
p317
aa(lp318
S'Ours'
p319
aS'is'
p320
aS'but'
p321
aa(lp322
S'But'
p323
aS'one'
p324
aS'moment'
p325
aa(lp326
S'Sound'
p327
aS'monetary'
p328
aS'policy'
p329
aa(lp330
S'We'
p331
aS'will'
p332
aS'continue'
p333
aa(lp334
S'Reducing'
p335
aS'unneeded'
p336
aS'red'
p337
aa(lp338
S'In'
p339
aS'just'
p340
aS'one'
p341
aa(lp342
S'We'
p343
aS'seek'
p344
aS'to'
p345
aa(lp346
S'Consistent'
p347
aS'with'
p348
aS'safety'
p349
aa(lp350
S'Every'
p351
aS'dollar'
p352
aS'the'
p353
aa(lp354
S'Our'
p355
aS'second'
p356
aS'American'
p357
aa(lp358
S'Despite'
p359
aS'budget'
p360
aS'restraints'
p361
aa(lp362
S'In'
p363
aS'the'
p364
aS'zero'
p365
aa(lp366
S'We'
p367
aS'can'
p368
aS'make'
p369
aa(lp370
S'As'
p371
aS'we'
p372
aS'do'
p373
aa(lp374
S'We'
p375
aS'will'
p376
aS'seek'
p377
aa(lp378
S'Of'
p379
aS'all'
p380
aS'the'
p381
aa(lp382
S'We'
p383
aS'see'
p384
aS'signs'
p385
aa(lp386
S'From'
p387
aS'thousands'
p388
aS'answering'
p389
aa(lp390
S'Private'
p391
aS'sector'
p392
aS'initiatives'
p393
aa(lp394
S'I'
aS'thank'
p395
aS'the'
p396
aa(lp397
S'But'
p398
aS'no'
p399
aS'citizen'
p400
aa(lp401
S'We'
p402
aS'ask'
p403
aS'you'
p404
aa(lp405
S'The'
p406
aS'question'
p407
aS'of'
p408
aa(lp409
S'Abortion'
p410
aS'is'
p411
aS'either'
p412
aa(lp413
S'And'
p414
aS'if'
p415
aS'it'
p416
aa(lp417
S'It'
p418
aS'is'
p419
aS'a'
aa(lp420
S'We'
p421
aS'have'
p422
aS'room'
p423
aa(lp424
S'We'
p425
aS'can'
p426
aS'fill'
p427
aa(lp428
S'And'
p429
aS'tonight'
p430
aS'I'
aa(lp431
S'In'
p432
aS'the'
p433
aS'area'
p434
aa(lp435
S'We'
p436
aS'must'
p437
aS'go'
p438
aa(lp439
S'Of'
p440
aS'all'
p441
aS'the'
p442
aa(lp443
S'One'
p444
aS'does'
p445
aS'not'
p446
aa(lp447
S'The'
p448
aS'woman'
p449
aS'who'
p450
aa(lp451
S'The'
p452
aS'couple'
p453
aS'draping'
p454
aa(lp455
S'We'
p456
aS'do'
p457
aS'not'
p458
aa(lp459
S'For'
p460
aS'the'
p461
aS'first'
p462
aa(lp463
S'But'
p464
aS'we'
p465
aS'must'
p466
aa(lp467
S'I'
aS'urge'
p468
aS'the'
p469
aa(lp470
S'These'
p471
aS'proposals'
p472
aS'would'
p473
aa(lp474
S'There'
p475
aS'can'
p476
aS'be'
p477
aa(lp478
S'And'
p479
aS'we'
p480
aS'mean'
p481
aa(lp482
S'Just'
p483
aS'as'
p484
aS'we'
p485
aa(lp486
S'Our'
p487
aS'alliances'
p488
aS'are'
p489
aa(lp490
S'Our'
p491
aS'economy'
p492
aS'is'
p493
aa(lp494
S'We'
p495
aS'have'
p496
aS'resumed'
p497
aa(lp498
S'And'
p499
aS'all'
p500
aS'of'
p501
aa(lp502
S'Now'
p503
aS'our'
p504
aS'determination'
p505
aa(lp506
S'Our'
p507
aS'negotiators'
p508
aS'must'
p509
aa(lp510
S'All'
p511
aS'of'
p512
aS'us'
p513
aa(lp514
S'Each'
p515
aS'Member'
p516
aS'of'
p517
aa(lp518
S'Your'
p519
aS'vote'
p520
aS'this'
p521
aa(lp522
S'For'
p523
aS'the'
p524
aS'past'
p525
aa(lp526
S'It'
p527
aS'is'
p528
aS'a'
aa(lp529
S'Some'
p530
aS'say'
p531
aS'it'
p532
aa(lp533
S'And'
p534
aS'some'
p535
aS'say'
p536
aa(lp537
S'And'
p538
aS'finally'
p539
aS'some'
p540
aa(lp541
S'Harry'
p542
aS'Truman'
p543
aS'once'
p544
aa(lp545
S'Look'
p546
aS'to'
p547
aS'where'
p548
aa(lp549
S'It'
p550
aS'is'
p551
aS'in'
p552
aa(lp553
S'Victories'
p554
aS'against'
p555
aS'poverty'
p556
aa(lp557
S'Our'
p558
aS'mission'
p559
aS'is'
p560
aa(lp561
S'Many'
p562
aS'countries'
p563
aS'in'
p564
aa(lp565
S'But'
p566
aS'through'
p567
aS'low'
p568
aa(lp569
S'And'
p570
aS'now'
p571
aS'China'
p572
aa(lp573
S'We'
p574
aS'need'
p575
aS'a'
aa(lp576
S'Tonight'
p577
aS'I'
aS'ask'
p578
aa(lp579
S'There'
p580
aS'are'
p581
aS'more'
p582
aa(lp583
S'Many'
p584
aS'are'
p585
aS'victims'
p586
aa(lp587
S'Let'
p588
aS'us'
p589
aS'ask'
p590
aa(lp591
S'We'
p592
aS'can'
p593
aS'not'
p594
aa(lp595
S'Our'
p596
aS'security'
p597
aS'assistance'
p598
aa(lp599
S'And'
p600
aS'I'
aS'hope'
p601
aa(lp602
S'We'
p603
aS'must'
p604
aS'stand'
p605
aa(lp606
S'And'
p607
aS'we'
p608
aS'must'
p609
aa(lp610
S'The'
p611
aS'Sandinista'
p612
aS'dictatorship'
p613
aa(lp614
S'Support'
p615
aS'for'
p616
aS'freedom'
p617
aa(lp618
S'It'
p619
aS'is'
p620
aS'essential'
p621
aa(lp622
S'I'
aS'want'
p623
aS'to'
p624
aa(lp625
S'Two'
p626
aS'hundred'
p627
aS'years'
p628
aa(lp629
S'Ten'
p630
aS'years'
p631
aS'ago'
p632
aa(lp633
S'They'
p634
aS'came'
p635
aS'to'
p636
aa(lp637
S'Ten'
p638
aS'years'
p639
aS'ago'
p640
aa(lp641
S'And'
p642
aS'this'
p643
aS'May'
p644
aa(lp645
S'I'
aS'thought'
p646
aS'you'
p647
aa(lp648
S'She'
p649
aS'lives'
p650
aS'in'
p651
aa(lp652
S'She'
p653
aS'helps'
p654
aS'them'
p655
aa(lp656
S'Go'
p657
aS'to'
p658
aS'her'
p659
aa(lp660
S'History'
p661
aS'is'
p662
aS'asking'
p663
aa(lp664
S'Let'
p665
aS'us'
p666
aS'begin'
p667
aa.