(lp1
(lp2
S'Thank'
p3
aS'you'
p4
aS'very'
p5
aa(lp6
S'I'
aS'see'
p7
aS'the'
p8
aa(lp9
S'They'
p10
aS'saw'
p11
aS'what'
p12
aa(lp13
S'I'
aS'mean'
p14
aS'to'
p15
aa(lp16
S'We'
p17
aS'gather'
p18
aS'tonight'
p19
aa(lp20
S'For'
p21
aS'in'
p22
aS'the'
p23
aa(lp24
S'And'
p25
aS'even'
p26
aS'now'
p27
aa(lp28
S'But'
p29
aS'communism'
p30
aS'died'
p31
aa(lp32
S'Even'
p33
aS'as'
p34
aS'President'
p35
aa(lp36
S'But'
p37
aS'the'
p38
aS'biggest'
p39
aa(lp40
S'I'
aS'mean'
p41
aS'to'
p42
aa(lp43
S'Now'
p44
aS'we'
p45
aS'can'
p46
aa(lp47
S'I'
aS'will'
p48
aS'speak'
p49
aa(lp50
S'But'
p51
aS'let'
p52
aS'me'
p53
aa(lp54
S'For'
p55
aS'the'
p56
aS'cold'
p57
aa(lp58
S'And'
p59
aS'I'
aS'think'
p60
aa(lp61
S'And'
p62
aS'some'
p63
aS'of'
p64
aa(lp65
S'Back'
p66
aS'then'
p67
aS'they'
p68
aa(lp69
S'The'
p70
aS'long'
p71
aS'rollcall'
p72
aa(lp73
S'Joes'
p74
aS'and'
p75
aS'Janes'
p76
aa(lp77
S'This'
p78
aS'may'
p79
aS'seem'
p80
aa(lp81
S'The'
p82
aS'world'
p83
aS'saw'
p84
aa(lp85
S'What'
p86
aS'a'
aS'group'
p87
aa(lp88
S'No'
p89
aS'one'
p90
aS'ever'
p91
aa(lp92
S'But'
p93
aS'for'
p94
aS'half'
p95
aa(lp96
S'But'
p97
aS'it'
p98
aS'did'
p99
aa(lp100
S'No'
p101
aS'longer'
p102
aS'are'
p103
aa(lp104
S'Tomorrow'
p105
aS'our'
p106
aS'children'
p107
aa(lp108
S'And'
p109
aS'they'
p110
aS'wo'
p111
aa(lp112
S'My'
p113
aS'grandchildren'
p114
aS'do'
p115
aa(lp116
S'There'
p117
aS'are'
p118
aS'still'
p119
aa(lp120
S'But'
p121
aS'the'
p122
aS'long'
p123
aa(lp124
S'A'
aS'year'
p125
aS'ago'
p126
aa(lp127
S'American'
p128
aS'forces'
p129
aS'had'
p130
aa(lp131
S'And'
p132
aS'soon'
p133
aS'after'
p134
aa(lp135
S'Our'
p136
aS'policies'
p137
aS'were'
p138
aa(lp139
S'Much'
p140
aS'good'
p141
aS'can'
p142
aa(lp143
S'And'
p144
aS'much'
p145
aS'good'
p146
aa(lp147
S'And'
p148
aS'they'
p149
aS'regard'
p150
aa(lp151
S'For'
p152
aS'the'
p153
aS'world'
p154
aa(lp155
S'They'
p156
aS'trust'
p157
aS'us'
p158
aa(lp159
S'They'
p160
aS'trust'
p161
aS'us'
p162
aa(lp163
S'They'
p164
aS'trust'
p165
aS'us'
p166
aa(lp167
S'I'
aS'use'
p168
aS'those'
p169
aa(lp170
S'A'
aS'few'
p171
aS'days'
p172
aa(lp173
S'Even'
p174
aS'in'
p175
aS'her'
p176
aa(lp177
S'And'
p178
aS'we'
p179
aS'did'
p180
aa(lp181
S'There'
p182
aS'were'
p183
aS'honest'
p184
aa(lp185
S'But'
p186
aS'when'
p187
aS'the'
p188
aa(lp189
S'This'
p190
aS'is'
p191
aS'still'
p192
aa(lp193
S'For'
p194
aS'problems'
p195
aS'face'
p196
aa(lp197
S'Two'
p198
aS'years'
p199
aS'ago'
p200
aa(lp201
S'Tonight'
p202
aS'I'
aS'can'
p203
aa(lp204
S'These'
p205
aS'are'
p206
aS'actions'
p207
aa(lp208
S'We'
p209
aS'will'
p210
aS'cancel'
p211
aa(lp212
S'We'
p213
aS'will'
p214
aS'cease'
p215
aa(lp216
S'We'
p217
aS'will'
p218
aS'stop'
p219
aa(lp220
S'And'
p221
aS'we'
p222
aS'will'
p223
aa(lp224
S'This'
p225
aS'weekend'
p226
aS'I'
aa(lp227
S'We'
p228
aS'will'
p229
aS'reduce'
p230
aa(lp231
S'And'
p232
aS'we'
p233
aS'will'
p234
aa(lp235
S'I'
aS'want'
p236
aS'you'
p237
aa(lp238
S'But'
p239
aS'even'
p240
aS'in'
p241
aa(lp242
S'For'
p243
aS'the'
p244
aS'world'
p245
aa(lp246
S'Only'
p247
aS'the'
p248
aS'dead'
p249
aa(lp250
S'And'
p251
aS'though'
p252
aS'yesterday'
p253
aa(lp254
S'The'
p255
aS'Secretary'
p256
aS'of'
p257
aa(lp258
S'And'
p259
aS'I'
aS'make'
p260
aa(lp261
S'But'
p262
aS'do'
p263
aS'not'
p264
aa(lp265
S'The'
p266
aS'reductions'
p267
aS'I'
aa(lp268
S'These'
p269
aS'cuts'
p270
aS'are'
p271
aa(lp272
S'To'
p273
aS'do'
p274
aS'less'
p275
aa(lp276
S'We'
p277
aS'must'
p278
aS'not'
p279
aa(lp280
S'I'
aS'remind'
p281
aS'you'
p282
aa(lp283
S'We'
p284
aS'must'
p285
aS'have'
p286
aa(lp287
S'And'
p288
aS'I'
aS'urge'
p289
aa(lp290
S'There'
p291
aS'are'
p292
aS'those'
p293
aa(lp294
S'But'
p295
aS'we'
p296
aS'are'
p297
aa(lp298
S'And'
p299
aS'as'
p300
aS'long'
p301
aa(lp302
S'This'
p303
aS'is'
p304
aS'a'
aa(lp305
S'And'
p306
aS'now'
p307
aS'to'
p308
aa(lp309
S'There'
p310
aS'are'
p311
aS'some'
p312
aa(lp313
S'And'
p314
aS'interest'
p315
aS'rates'
p316
aa(lp317
S'But'
p318
aS'unemployment'
p319
aS'is'
p320
aa(lp321
S'Let'
p322
aS'me'
p323
aS'tell'
p324
aa(lp325
S'But'
p326
aS'I'
aS'know'
p327
aa(lp328
S'In'
p329
aS'this'
p330
aS'Chamber'
p331
aa(lp332
S'And'
p333
aS'we'
p334
aS'can'
p335
aa(lp336
S'I'
aS'believe'
p337
aS'you'
p338
aa(lp339
S'One'
p340
aS'reason'
p341
aS'is'
p342
aa(lp343
S'And'
p344
aS'I'
aS'believe'
p345
aa(lp346
S'The'
p347
aS'power'
p348
aS'of'
p349
aa(lp350
S'For'
p351
aS'if'
p352
aS'this'
p353
aa(lp354
S'We'
p355
aS'must'
p356
aS'encourage'
p357
aa(lp358
S'We'
p359
aS'must'
p360
aS'make'
p361
aa(lp362
S'We'
p363
aS'must'
p364
aS'clear'
p365
aa(lp366
S'None'
p367
aS'of'
p368
aS'this'
p369
aa(lp370
S'And'
p371
aS'the'
p372
aS'test'
p373
aa(lp374
S'The'
p375
aS'American'
p376
aS'people'
p377
aa(lp378
S'The'
p379
aS'only'
p380
aS'test'
p381
aa(lp382
S'We'
p383
aS'must'
p384
aS'have'
p385
aa(lp386
S'And'
p387
aS'then'
p388
aS'we'
p389
aa(lp390
S'There'
p391
aS'are'
p392
aS'certain'
p393
aa(lp394
S'I'
aS'have'
p395
aS'directed'
p396
aa(lp397
S'This'
p398
aS'should'
p399
aS'put'
p400
aa(lp401
S'And'
p402
aS'our'
p403
aS'new'
p404
aa(lp405
S'And'
p406
aS'that'
p407
aS'means'
p408
aa(lp409
S'And'
p410
aS'I'
aS'have'
p411
aa(lp412
S'With'
p413
aS'this'
p414
aS'change'
p415
aa(lp416
S'Something'
p417
aS'tells'
p418
aS'me'
p419
aa(lp420
S'This'
p421
aS'initiative'
p422
aS'could'
p423
aa(lp424
S'You'
p425
aS'must'
p426
aS'pass'
p427
aa(lp428
S'Everyone'
p429
aS'knows'
p430
aS'that'
p431
aa(lp432
S'I'
aS'am'
p433
aS'proposing'
p434
aa(lp435
S'This'
p436
aS'will'
p437
aS'encourage'
p438
aa(lp439
S'Real'
p440
aS'estate'
p441
aS'has'
p442
aa(lp443
S'Once'
p444
aS'building'
p445
aS'starts'
p446
aa(lp447
S'My'
p448
aS'plan'
p449
aS'would'
p450
aa(lp451
S'And'
p452
aS'it'
p453
aS'would'
p454
aa(lp455
S'For'
p456
aS'those'
p457
aS'Americans'
p458
aa(lp459
S'You'
p460
aS'must'
p461
aS'cut'
p462
aa(lp463
S'Never'
p464
aS'has'
p465
aS'an'
p466
aa(lp467
S'But'
p468
aS'the'
p469
aS'demagogs'
p470
aa(lp471
S'They'
p472
aS'are'
p473
aS'wrong'
p474
aa(lp475
S'Sixty'
p476
aS'percent'
p477
aS'of'
p478
aa(lp479
S'A'
aS'cut'
p480
aS'in'
p481
aa(lp482
S'And'
p483
aS'maybe'
p484
aS'it'
p485
aa(lp486
S'While'
p487
aS'my'
p488
aS'plan'
p489
aa(lp490
S'I'
aS'have'
p491
aS'provided'
p492
aa(lp493
S'And'
p494
aS'I'
aS'ask'
p495
aa(lp496
S'And'
p497
aS'I'
aS'thank'
p498
aa(lp499
S'Let'
p500
aS'me'
p501
aS'level'
p502
aa(lp503
S'I'
aS'know'
p504
aS'and'
p505
aa(lp506
S'But'
p507
aS'I'
aS'ask'
p508
aa(lp509
S'And'
p510
aS'my'
p511
aS'aim'
p512
aa(lp513
S'I'
aS'pride'
p514
aS'myself'
p515
aa(lp516
S'But'
p517
aS'I'
aS'understand'
p518
aa(lp519
S'Members'
p520
aS'of'
p521
aS'this'
p522
aa(lp523
S'When'
p524
aS'people'
p525
aS'put'
p526
aa(lp527
S'And'
p528
aS'they'
p529
aS'will'
p530
aa(lp531
S'I'
aS'submit'
p532
aS'my'
p533
aa(lp534
S'And'
p535
aS'I'
aS'ask'
p536
aa(lp537
S'From'
p538
aS'the'
p539
aS'day'
p540
aa(lp541
S'And'
p542
aS'you'
p543
aS'know'
p544
aa(lp545
S'I'
aS'said'
p546
aS'my'
p547
aa(lp548
S'We'
p549
aS'all'
p550
aS'know'
p551
aa(lp552
S'We'
p553
aS'have'
p554
aS'that'
p555
aa(lp556
S'We'
p557
aS'will'
p558
aS'work'
p559
aa(lp560
S'And'
p561
aS'in'
p562
aS'our'
p563
aa(lp564
S'But'
p565
aS'changes'
p566
aS'are'
p567
aa(lp568
S'The'
p569
aS'workplace'
p570
aS'of'
p571
aa(lp572
S'We'
p573
aS'must'
p574
aS'be'
p575
aa(lp576
S'And'
p577
aS'we'
p578
aS'must'
p579
aa(lp580
S'My'
p581
aS'plan'
p582
aS'will'
p583
aa(lp584
S'Thirty'
p585
aS'States'
p586
aS'across'
p587
aa(lp588
S'Hundreds'
p589
aS'of'
p590
aS'cities'
p591
aa(lp592
S'Now'
p593
aS'Congress'
p594
aS'must'
p595
aa(lp596
S'That'
p597
aS'was'
p598
aS'my'
p599
aa(lp600
S'We'
p601
aS'must'
p602
aS'encourage'
p603
aa(lp604
S'My'
p605
aS'plan'
p606
aS'is'
p607
aa(lp608
S'It'
p609
aS'is'
p610
aS'time'
p611
aa(lp612
S'It'
p613
aS'saps'
p614
aS'our'
p615
aa(lp616
S'Surely'
p617
aS'a'
aS'tired'
p618
aa(lp619
S'And'
p620
aS'surely'
p621
aS'it'
p622
aa(lp623
S'It'
p624
aS'is'
p625
aS'time'
p626
aa(lp627
S'It'
p628
aS'is'
p629
aS'tough'
p630
aa(lp631
S'Help'
p632
aS'your'
p633
aS'country'
p634
aa(lp635
S'We'
p636
aS'must'
p637
aS'empower'
p638
aa(lp639
S'My'
p640
aS'plan'
p641
aS'would'
p642
aa(lp643
S'And'
p644
aS'I'
aS'ask'
p645
aa(lp646
S'American'
p647
aS'health'
p648
aS'costs'
p649
aa(lp650
S'This'
p651
aS'year'
p652
aS'America'
p653
aa(lp654
S'We'
p655
aS'simply'
p656
aS'can'
p657
aa(lp658
S'The'
p659
aS'cost'
p660
aS'of'
p661
aa(lp662
S'When'
p663
aS'health'
p664
aS'coverage'
p665
aa(lp666
S'We'
p667
aS'must'
p668
aS'make'
p669
aa(lp670
S'They'
p671
aS'call'
p672
aS'it'
p673
aa(lp674
S'It'
p675
aS'will'
p676
aS'mean'
p677
aa(lp678
S'And'
p679
aS'we'
p680
aS'can'
p681
aa(lp682
S'And'
p683
aS'what'
p684
aS'we'
p685
aa(lp686
S'Or'
p687
aS'we'
p688
aS'can'
p689
aa(lp690
S'My'
p691
aS'plan'
p692
aS'provides'
p693
aa(lp694
S'We'
p695
aS'make'
p696
aS'basic'
p697
aa(lp698
S'And'
p699
aS'the'
p700
aS'middle'
p701
aa(lp702
S'And'
p703
aS'by'
p704
aS'reforming'
p705
aa(lp706
S'We'
p707
aS'must'
p708
aS'bring'
p709
aa(lp710
S'We'
p711
aS'now'
p712
aS'have'
p713
aa(lp714
S'There'
p715
aS'are'
p716
aS'those'
p717
aa(lp718
S'But'
p719
aS'I'
aS'can'
p720
aa(lp721
S'My'
p722
aS'plan'
p723
aS'would'
p724
aa(lp725
S'I'
aS'will'
p726
aS'not'
p727
aa(lp728
S'And'
p729
aS'I'
aS'would'
p730
aa(lp731
S'And'
p732
aS'with'
p733
aS'the'
p734
aa(lp735
S'Some'
p736
aS'of'
p737
aS'them'
p738
aa(lp739
S'We'
p740
aS'can'
p741
aS'get'
p742
aa(lp743
S'And'
p744
aS'I'
aS'call'
p745
aa(lp746
S'We'
p747
aS'all'
p748
aS'know'
p749
aa(lp750
S'I'
aS'know'
p751
aS'how'
p752
aa(lp753
S'Give'
p754
aS'me'
p755
aS'the'
p756
aa(lp757
S'We'
p758
aS'must'
p759
aS'put'
p760
aa(lp761
S'These'
p762
aS'are'
p763
aS'the'
p764
aa(lp765
S'If'
p766
aS'Congress'
p767
aS'passes'
p768
aa(lp769
S'When'
p770
aS'Barbara'
p771
aS'holds'
p772
aa(lp773
S'And'
p774
aS'I'
aS'am'
p775
aa(lp776
S'They'
p777
aS'said'
p778
aS'that'
p779
aa(lp780
S'They'
p781
aS'asked'
p782
aS'for'
p783
aa(lp784
S'I'
aS'ask'
p785
aS'you'
p786
aa(lp787
S'For'
p788
aS'a'
aS'family'
p789
aa(lp790
S'This'
p791
aS'is'
p792
aS'a'
aa(lp793
S'I'
aS'am'
p794
aS'asking'
p795
aa(lp796
S'Ask'
p797
aS'American'
p798
aS'parents'
p799
aa(lp800
S'Americans'
p801
aS'are'
p802
aS'the'
p803
aa(lp804
S'But'
p805
aS'we'
p806
aS'have'
p807
aa(lp808
S'Welfare'
p809
aS'was'
p810
aS'never'
p811
aa(lp812
S'It'
p813
aS'was'
p814
aS'never'
p815
aa(lp816
S'It'
p817
aS'was'
p818
aS'never'
p819
aa(lp820
S'States'
p821
aS'throughout'
p822
aS'the'
p823
aa(lp824
S'We'
p825
aS'are'
p826
aS'going'
p827
aa(lp828
S'I'
aS'will'
p829
aS'act'
p830
aa(lp831
S'I'
aS'want'
p832
aS'to'
p833
aa(lp834
S'If'
p835
aS'you'
p836
aS'read'
p837
aa(lp838
S'This'
p839
aS'is'
p840
aS'not'
p841
aa(lp842
S'And'
p843
aS'this'
p844
aS'is'
p845
aa(lp846
S'I'
aS'myself'
p847
aS'have'
p848
aa(lp849
S'They'
p850
aS'need'
p851
aS'help'
p852
aa(lp853
S'People'
p854
aS'are'
p855
aS'worried'
p856
aa(lp857
S'Someone'
p858
aS'even'
p859
aS'said'
p860
aa(lp861
S'And'
p862
aS'I'
aS'thought'
p863
aa(lp864
S'You'
p865
aS'go'
p866
aS'tell'
p867
aa(lp868
S'Tell'
p869
aS'the'
p870
aS'men'
p871
aa(lp872
S'Tell'
p873
aS'the'
p874
aS'American'
p875
aa(lp876
S'Tell'
p877
aS'the'
p878
aS'men'
p879
aa(lp880
S'Moods'
p881
aS'come'
p882
aS'and'
p883
aa(lp884
S'And'
p885
aS'maybe'
p886
aS'for'
p887
aa(lp888
S'And'
p889
aS'we'
p890
aS'have'
p891
aa(lp892
S'And'
p893
aS'we'
p894
aS'are'
p895
aa(lp896
S'Because'
p897
aS'I'
aS'look'
p898
aa(lp899
S'Thank'
p900
aS'you'
p901
aS'very'
p902
aa.