(lp1
(lp2
S'I'
aS'come'
p3
aS'before'
p4
aa(lp5
S'We'
p6
aS'have'
p7
aS'much'
p8
aa(lp9
S'With'
p10
aS'crime'
p11
aS'and'
p12
aa(lp13
S'With'
p14
aS'the'
p15
aS'cold'
p16
aa(lp17
S'My'
p18
aS'fellow'
p19
aS'Americans'
p20
aa(lp21
S'But'
p22
aS'now'
p23
aS'we'
p24
aa(lp25
S'The'
p26
aS'new'
p27
aS'promise'
p28
aa(lp29
S'That'
p30
aS'is'
p31
aS'our'
p32
aa(lp33
S'We'
p34
aS'must'
p35
aS'be'
p36
aa(lp37
S'We'
p38
aS'face'
p39
aS'no'
p40
aa(lp41
S'The'
p42
aS'enemy'
p43
aS'of'
p44
aa(lp45
S'So'
p46
aS'tonight'
p47
aS'I'
aa(lp48
S'The'
p49
aS'spirit'
p50
aS'we'
p51
aa(lp52
S'We'
p53
aS'must'
p54
aS'be'
p55
aa(lp56
S'And'
p57
aS'we'
p58
aS'must'
p59
aa(lp60
S'And'
p61
aS'we'
p62
aS'must'
p63
aa(lp64
S'The'
p65
aS'people'
p66
aS'of'
p67
aa(lp68
S'They'
p69
aS'want'
p70
aS'us'
p71
aa(lp72
S'They'
p73
aS'put'
p74
aS'us'
p75
aa(lp76
S'Over'
p77
aS'the'
p78
aS'last'
p79
aa(lp80
S'Now'
p81
aS'we'
p82
aS'must'
p83
aa(lp84
S'We'
p85
aS'here'
p86
aS'tonight'
p87
aa(lp88
S'Let'
p89
aS'this'
p90
aS'Congress'
p91
aa(lp92
S'This'
p93
aS'plan'
p94
aS'will'
p95
aa(lp96
S'It'
p97
aS'will'
p98
aS'balance'
p99
aa(lp100
S'It'
p101
aS'will'
p102
aS'balance'
p103
aa(lp104
S'Balancing'
p105
aS'the'
p106
aS'budget'
p107
aa(lp108
S'It'
p109
aS'does'
p110
aS'not'
p111
aa(lp112
S'I'
aS'believe'
p113
aS'it'
p114
aa(lp115
S'Let'
p116
aS'us'
p117
aS'at'
p118
aa(lp119
S'Whatever'
p120
aS'your'
p121
aS'view'
p122
aa(lp123
S'Whatever'
p124
aS'our'
p125
aS'differences'
p126
aa(lp127
S'And'
p128
aS'let'
p129
aS'me'
p130
aa(lp131
S'I'
aS'know'
p132
aS'this'
p133
aa(lp134
S'But'
p135
aS'I'
aS'really'
p136
aa(lp137
S'I'
aS'know'
p138
aS'it'
p139
aa(lp140
S'But'
p141
aS'another'
p142
aS'reason'
p143
aa(lp144
S'We'
p145
aS'owe'
p146
aS'it'
p147
aa(lp148
S'Our'
p149
aS'second'
p150
aS'piece'
p151
aa(lp152
S'Their'
p153
aS'proposal'
p154
aS'would'
p155
aa(lp156
S'You'
p157
aS'know'
p158
aS'and'
p159
aa(lp160
S'And'
p161
aS'you'
p162
aS'know'
p163
aa(lp164
S'There'
p165
aS'is'
p166
aS'a'
aa(lp167
S'Over'
p168
aS'the'
p169
aS'last'
p170
aa(lp171
S'Then'
p172
aS'last'
p173
aS'year'
p174
aa(lp175
S'Now'
p176
aS'each'
p177
aS'and'
p178
aa(lp179
S'Now'
p180
aS'we'
p181
aS'must'
p182
aa(lp183
S'Here'
p184
aS'is'
p185
aS'my'
p186
aa(lp187
S'Now'
p188
aS'I'
aS'challenge'
p189
aa(lp190
S'I'
aS'challenge'
p191
aS'every'
p192
aa(lp193
S'We'
p194
aS'have'
p195
aS'torn'
p196
aa(lp197
S'Now'
p198
aS'do'
p199
aS'your'
p200
aa(lp201
S'Give'
p202
aS'someone'
p203
aS'on'
p204
aa(lp205
S'Tonight'
p206
aS'I'
aS'am'
p207
aa(lp208
S'We'
p209
aS'passed'
p210
aS'welfare'
p211
aa(lp212
S'All'
p213
aS'of'
p214
aS'you'
p215
aa(lp216
S'But'
p217
aS'no'
p218
aS'one'
p219
aa(lp220
S'And'
p221
aS'we'
p222
aS'must'
p223
aa(lp224
S'To'
p225
aS'do'
p226
aS'otherwise'
p227
aa(lp228
S'My'
p229
aS'balanced'
p230
aS'budget'
p231
aa(lp232
S'But'
p233
aS'far'
p234
aS'more'
p235
aa(lp236
S'I'
aS'have'
p237
aS'a'
aa(lp238
S'Every'
p239
aS'State'
p240
aS'and'
p241
aa(lp242
S'To'
p243
aS'help'
p244
aS'schools'
p245
aa(lp246
S'Tonight'
p247
aS'I'
aS'issue'
p248
aa(lp249
S'Raising'
p250
aS'standards'
p251
aS'will'
p252
aa(lp253
S'The'
p254
aS'point'
p255
aS'is'
p256
aa(lp257
S'Good'
p258
aS'tests'
p259
aS'will'
p260
aa(lp261
S'They'
p262
aS'can'
p263
aS'help'
p264
aa(lp265
S'Last'
p266
aS'month'
p267
aS'our'
p268
aa(lp269
S'And'
p270
aS'those'
p271
aS'students'
p272
aa(lp273
S'Two'
p274
aS'of'
p275
aS'them'
p276
aa(lp277
S'And'
p278
aS'they'
p279
aS'prove'
p280
aa(lp281
S'Most'
p282
aS'of'
p283
aS'us'
p284
aa(lp285
S'My'
p286
aS'budget'
p287
aS'will'
p288
aa(lp289
S'We'
p290
aS'should'
p291
aS'reward'
p292
aa(lp293
S'And'
p294
aS'we'
p295
aS'should'
p296
aa(lp297
S'We'
p298
aS'will'
p299
aS'use'
p300
aa(lp301
S'We'
p302
aS'want'
p303
aS'at'
p304
aa(lp305
S'This'
p306
aS'is'
p307
aS'also'
p308
aa(lp309
S'And'
p310
aS'it'
p311
aS'is'
p312
aa(lp313
S'This'
p314
aS'leads'
p315
aS'to'
p316
aa(lp317
S'Scientists'
p318
aS'are'
p319
aS'now'
p320
aa(lp321
S'The'
p322
aS'First'
p323
aS'Lady'
p324
aa(lp325
S'And'
p326
aS'she'
p327
aS'and'
p328
aa(lp329
S'We'
p330
aS'already'
p331
aS'know'
p332
aa(lp333
S'And'
p334
aS'that'
p335
aS'is'
p336
aa(lp337
S'And'
p338
aS'I'
aS'thank'
p339
aa(lp340
S'Their'
p341
aS'right'
p342
aS'to'
p343
aa(lp344
S'We'
p345
aS'should'
p346
aS'also'
p347
aa(lp348
S'Our'
p349
aS'plan'
p350
aS'will'
p351
aa(lp352
S'We'
p353
aS'must'
p354
aS'teach'
p355
aa(lp356
S'And'
p357
aS'we'
p358
aS'must'
p359
aa(lp360
S'With'
p361
aS'the'
p362
aS'student'
p363
aa(lp364
S'To'
p365
aS'do'
p366
aS'that'
p367
aa(lp368
S'I'
aS'also'
p369
aS'propose'
p370
aa(lp371
S'I'
aS'ask'
p372
aS'you'
p373
aa(lp374
S'All'
p375
aS'our'
p376
aS'people'
p377
aa(lp378
S'Most'
p379
aS'Americans'
p380
aS'live'
p381
aa(lp382
S'The'
p383
aS'roads'
p384
aS'that'
p385
aa(lp386
S'For'
p387
aS'too'
p388
aS'long'
p389
aa(lp390
S'I'
aS'ask'
p391
aS'you'
p392
aa(lp393
S'That'
p394
aS'is'
p395
aS'my'
p396
aa(lp397
S'Some'
p398
aS'may'
p399
aS'say'
p400
aa(lp401
S'Some'
p402
aS'may'
p403
aS'say'
p404
aa(lp405
S'That'
p406
aS'is'
p407
aS'not'
p408
aa(lp409
S'We'
p410
aS'must'
p411
aS'understand'
p412
aa(lp413
S'One'
p414
aS'of'
p415
aS'the'
p416
aa(lp417
S'Because'
p418
aS'our'
p419
aS'future'
p420
aa(lp421
S'Now'
p422
aS'I'
aS'ask'
p423
aa(lp424
S'To'
p425
aS'prepare'
p426
aS'America'
p427
aa(lp428
S'This'
p429
aS'is'
p430
aS'the'
p431
aa(lp432
S'Our'
p433
aS'effort'
p434
aS'to'
p435
aa(lp436
S'Now'
p437
aS'we'
p438
aS'should'
p439
aa(lp440
S'And'
p441
aS'I'
aS'challenge'
p442
aa(lp443
S'A'
aS'sick'
p444
aS'child'
p445
aa(lp446
S'We'
p447
aS'must'
p448
aS'build'
p449
aa(lp450
S'But'
p451
aS'we'
p452
aS'can'
p453
aa(lp454
S'As'
p455
aS'the'
p456
aS'Internet'
p457
aa(lp458
S'And'
p459
aS'over'
p460
aS'the'
p461
aa(lp462
S'We'
p463
aS'must'
p464
aS'continue'
p465
aa(lp466
S'We'
p467
aS'must'
p468
aS'speed'
p469
aa(lp470
S'The'
p471
aS'human'
p472
aS'genome'
p473
aa(lp474
S'American'
p475
aS'scientists'
p476
aS'have'
p477
aa(lp478
S'Since'
p479
aS'I'
aS'took'
p480
aa(lp481
S'With'
p482
aS'new'
p483
aS'resources'
p484
aa(lp485
S'Remember'
p486
aS'that'
p487
aS'every'
p488
aa(lp489
S'We'
p490
aS'must'
p491
aS'reinforce'
p492
aa(lp493
S'To'
p494
aS'prepare'
p495
aS'America'
p496
aa(lp497
S'Over'
p498
aS'the'
p499
aS'past'
p500
aa(lp501
S'With'
p502
aS'new'
p503
aS'pressures'
p504
aa(lp505
S'We'
p506
aS'should'
p507
aS'pass'
p508
aa(lp509
S'We'
p510
aS'must'
p511
aS'continue'
p512
aa(lp513
S'Forty'
p514
aS'million'
p515
aS'Americans'
p516
aa(lp517
S'Ten'
p518
aS'million'
p519
aS'children'
p520
aa(lp521
S'That'
p522
aS'is'
p523
aS'wrong'
p524
aa(lp525
S'My'
p526
aS'balanced'
p527
aS'budget'
p528
aa(lp529
S'Since'
p530
aS'nearly'
p531
aS'half'
p532
aa(lp533
S'No'
p534
aS'child'
p535
aS'should'
p536
aa(lp537
S'My'
p538
aS'Medicare'
p539
aS'plan'
p540
aa(lp541
S'Just'
p542
aS'as'
p543
aS'we'
p544
aa(lp545
S'I'
aS'ask'
p546
aS'your'
p547
aa(lp548
S'With'
p549
aS'us'
p550
aS'tonight'
p551
aa(lp552
S'In'
p553
aS'the'
p554
aS'last'
p555
aa(lp556
S'Now'
p557
aS'we'
p558
aS'should'
p559
aa(lp560
S'To'
p561
aS'prepare'
p562
aS'America'
p563
aa(lp564
S'We'
p565
aS'should'
p566
aS'start'
p567
aa(lp568
S'Serious'
p569
aS'crime'
p570
aS'has'
p571
aa(lp572
S'The'
p573
aS'key'
p574
aS'has'
p575
aa(lp576
S'We'
p577
aS'must'
p578
aS'finish'
p579
aa(lp580
S'We'
p581
aS'should'
p582
aS'pass'
p583
aa(lp584
S'And'
p585
aS'I'
aS'ask'
p586
aa(lp587
S'This'
p588
aS'balanced'
p589
aS'budget'
p590
aa(lp591
S'I'
aS'hope'
p592
aS'you'
p593
aa(lp594
S'Our'
p595
aS'growing'
p596
aS'economy'
p597
aa(lp598
S'But'
p599
aS'we'
p600
aS'must'
p601
aa(lp602
S'We'
p603
aS'should'
p604
aS'double'
p605
aa(lp606
S'We'
p607
aS'should'
p608
aS'restore'
p609
aa(lp610
S'We'
p611
aS'should'
p612
aS'expand'
p613
aa(lp614
S'And'
p615
aS'together'
p616
aS'we'
p617
aa(lp618
S'We'
p619
aS'must'
p620
aS'protect'
p621
aa(lp622
S'In'
p623
aS'the'
p624
aS'last'
p625
aa(lp626
S'Now'
p627
aS'we'
p628
aS'should'
p629
aa(lp630
S'I'
aS'urge'
p631
aS'you'
p632
aa(lp633
S'In'
p634
aS'the'
p635
aS'last'
p636
aa(lp637
S'We'
p638
aS'protected'
p639
aS'some'
p640
aa(lp641
S'Now'
p642
aS'we'
p643
aS'must'
p644
aa(lp645
S'Tonight'
p646
aS'I'
aS'announce'
p647
aa(lp648
S'We'
p649
aS'must'
p650
aS'also'
p651
aa(lp652
S'And'
p653
aS'that'
p654
aS'means'
p655
aa(lp656
S'Our'
p657
aS'national'
p658
aS'service'
p659
aa(lp660
S'Now'
p661
aS'we'
p662
aS'intend'
p663
aa(lp664
S'Citizen'
p665
aS'service'
p666
aS'is'
p667
aa(lp668
S'Our'
p669
aS'economy'
p670
aS'is'
p671
aa(lp672
S'But'
p673
aS'the'
p674
aS'enduring'
p675
aa(lp676
S'So'
p677
aS'instead'
p678
aS'of'
p679
aa(lp680
S'We'
p681
aS'should'
p682
aS'challenge'
p683
aa(lp684
S'To'
p685
aS'prepare'
p686
aS'America'
p687
aa(lp688
S'Fifty'
p689
aS'years'
p690
aS'ago'
p691
aa(lp692
S'As'
p693
aS'a'
aS'result'
p694
aa(lp695
S'Already'
p696
aS'we'
p697
aS'have'
p698
aa(lp699
S'For'
p700
aS'the'
p701
aS'first'
p702
aa(lp703
S'Now'
p704
aS'we'
p705
aS'stand'
p706
aa(lp707
S'In'
p708
aS'this'
p709
aS'endeavor'
p710
aa(lp711
S'When'
p712
aS'Europe'
p713
aS'is'
p714
aa(lp715
S'To'
p716
aS'that'
p717
aS'end'
p718
aa(lp719
S'At'
p720
aS'the'
p721
aS'special'
p722
aa(lp723
S'We'
p724
aS'must'
p725
aS'strengthen'
p726
aa(lp727
S'And'
p728
aS'we'
p729
aS'must'
p730
aa(lp731
S'An'
p732
aS'expanded'
p733
aS'NATO'
p734
aa(lp735
S'Our'
p736
aS'security'
p737
aS'demands'
p738
aa(lp739
S'Americans'
p740
aS'fought'
p741
aS'three'
p742
aa(lp743
S'Our'
p744
aS'prosperity'
p745
aS'requires'
p746
aa(lp747
S'Let'
p748
aS'our'
p749
aS'progress'
p750
aa(lp751
S'Together'
p752
aS'with'
p753
aS'South'
p754
aa(lp755
S'And'
p756
aS'I'
aS'call'
p757
aa(lp758
S'We'
p759
aS'must'
p760
aS'pursue'
p761
aa(lp762
S'An'
p763
aS'isolated'
p764
aS'China'
p765
aa(lp766
S'I'
aS'will'
p767
aS'go'
p768
aa(lp769
S'The'
p770
aS'American'
p771
aS'people'
p772
aa(lp773
S'I'
aS'am'
p774
aS'proud'
p775
aa(lp776
S'Now'
p777
aS'we'
p778
aS'must'
p779
aa(lp780
S'That'
p781
aS'is'
p782
aS'why'
p783
aa(lp784
S'We'
p785
aS'need'
p786
aS'not'
p787
aa(lp788
S'In'
p789
aS'a'
aS'truly'
p790
aa(lp791
S'But'
p792
aS'this'
p793
aS'is'
p794
aa(lp795
S'By'
p796
aS'expanding'
p797
aS'trade'
p798
aa(lp799
S'There'
p800
aS'is'
p801
aS'no'
p802
aa(lp803
S'That'
p804
aS'is'
p805
aS'why'
p806
aa(lp807
S'We'
p808
aS'should'
p809
aS'all'
p810
aa(lp811
S'And'
p812
aS'we'
p813
aS'should'
p814
aa(lp815
S'America'
p816
aS'must'
p817
aS'continue'
p818
aa(lp819
S'Taking'
p820
aS'reasonable'
p821
aS'risks'
p822
aa(lp823
S'With'
p824
aS'American'
p825
aS'leadership'
p826
aa(lp827
S'Now'
p828
aS'the'
p829
aS'habits'
p830
aa(lp831
S'The'
p832
aS'new'
p833
aS'NATO'
p834
aa(lp835
S'Tonight'
p836
aS'I'
aS'ask'
p837
aa(lp838
S'They'
p839
aS'are'
p840
aS'doing'
p841
aa(lp842
S'In'
p843
aS'the'
p844
aS'past'
p845
aa(lp846
S'We'
p847
aS'are'
p848
aS'acting'
p849
aa(lp850
S'We'
p851
aS'are'
p852
aS'working'
p853
aa(lp854
S'Now'
p855
aS'we'
p856
aS'must'
p857
aa(lp858
S'Make'
p859
aS'no'
p860
aS'mistake'
p861
aa(lp862
S'It'
p863
aS'will'
p864
aS'make'
p865
aa(lp866
S'It'
p867
aS'will'
p868
aS'help'
p869
aa(lp870
S'We'
p871
aS'have'
p872
aS'no'
p873
aa(lp874
S'This'
p875
aS'treaty'
p876
aS'has'
p877
aa(lp878
S'But'
p879
aS'if'
p880
aS'we'
p881
aa(lp882
S'Together'
p883
aS'we'
p884
aS'must'
p885
aa(lp886
S'We'
p887
aS'must'
p888
aS'maintain'
p889
aa(lp890
S'We'
p891
aS'must'
p892
aS'increase'
p893
aa(lp894
S'They'
p895
aS'are'
p896
aS'the'
p897
aa(lp898
S'We'
p899
aS'must'
p900
aS'also'
p901
aa(lp902
S'Every'
p903
aS'dollar'
p904
aS'we'
p905
aa(lp906
S'Yet'
p907
aS'international'
p908
aS'affairs'
p909
aa(lp910
S'If'
p911
aS'America'
p912
aS'is'
p913
aa(lp914
S'A'
aS'farsighted'
p915
aS'America'
p916
aa(lp917
S'And'
p918
aS'so'
p919
aS'it'
p920
aa(lp921
S'But'
p922
aS'a'
aS'shortsighted'
p923
aa(lp924
S'This'
p925
aS'was'
p926
aS'his'
p927
aa(lp928
S'Now'
p929
aS'let'
p930
aS'us'
p931
aa(lp932
S'Let'
p933
aS'us'
p934
aS'do'
p935
aa(lp936
S'In'
p937
aS'the'
p938
aS'end'
p939
aa(lp940
S'All'
p941
aS'over'
p942
aS'the'
p943
aa(lp944
S'We'
p945
aS'are'
p946
aS'the'
p947
aa(lp948
S'America'
p949
aS'has'
p950
aS'always'
p951
aa(lp952
S'From'
p953
aS'the'
p954
aS'start'
p955
aa(lp956
S'We'
p957
aS'started'
p958
aS'as'
p959
aa(lp960
S'We'
p961
aS'have'
p962
aS'grown'
p963
aa(lp964
S'My'
p965
aS'fellow'
p966
aS'Americans'
p967
aa(lp968
S'It'
p969
aS'is'
p970
aS'our'
p971
aa(lp972
S'Americans'
p973
aS'speak'
p974
aS'every'
p975
aa(lp976
S'People'
p977
aS'on'
p978
aS'every'
p979
aa(lp980
S'We'
p981
aS'still'
p982
aS'see'
p983
aa(lp984
S'We'
p985
aS'must'
p986
aS'fight'
p987
aa(lp988
S'Just'
p989
aS'a'
aS'few'
p990
aa(lp991
S'I'
aS'want'
p992
aS'to'
p993
aa(lp994
S'Congressman'
p995
aS'Frank'
p996
aS'Tejeda'
p997
aa(lp998
S'He'
p999
aS'was'
p1000
aS'only'
p1001
aa(lp1002
S'He'
p1003
aS'was'
p1004
aS'awarded'
p1005
aa(lp1006
S'And'
p1007
aS'he'
p1008
aS'went'
p1009
aa(lp1010
S'We'
p1011
aS'are'
p1012
aS'grateful'
p1013
aa(lp1014
S'And'
p1015
aS'we'
p1016
aS'welcome'
p1017
aa(lp1018
S'He'
p1019
aS'represents'
p1020
aS'the'
p1021
aa(lp1022
S'Please'
p1023
aS'stand'
p1024
aS'up'
p1025
aa(lp1026
S'We'
p1027
aS'may'
p1028
aS'not'
p1029
aa(lp1030
S'Building'
p1031
aS'one'
p1032
aS'America'
p1033
aa(lp1034
S'Money'
p1035
aS'can'
p1036
aS'not'
p1037
aa(lp1038
S'Power'
p1039
aS'can'
p1040
aS'not'
p1041
aa(lp1042
S'Technology'
p1043
aS'can'
p1044
aS'not'
p1045
aa(lp1046
S'It'
p1047
aS'can'
p1048
aS'only'
p1049
aa(lp1050
S'America'
p1051
aS'is'
p1052
aS'far'
p1053
aa(lp1054
S'It'
p1055
aS'is'
p1056
aS'an'
p1057
aa(lp1058
S'And'
p1059
aS'all'
p1060
aS'of'
p1061
aa(lp1062
S'A'
aS'child'
p1063
aS'born'
p1064
aa(lp1065
S'Everything'
p1066
aS'that'
p1067
aS'child'
p1068
aa(lp1069
S'Tomorrow'
p1070
aS'there'
p1071
aS'will'
p1072
aa(lp1073
S'My'
p1074
aS'fellow'
p1075
aS'Americans'
p1076
aa(lp1077
S'Let'
p1078
aS'us'
p1079
aS'seize'
p1080
aa.