(lp1
(lp2
S'Thank'
p3
aS'you'
p4
aS'all'
p5
aa(lp6
S'Tonight'
p7
aS'we'
p8
aS'are'
p9
aa(lp10
S'Every'
p11
aS'time'
p12
aS'I'
aa(lp13
S'We'
p14
aS'have'
p15
aS'gathered'
p16
aa(lp17
S'We'
p18
aS'have'
p19
aS'served'
p20
aa(lp21
S'In'
p22
aS'a'
aS'system'
p23
aa(lp24
S'But'
p25
aS'even'
p26
aS'tough'
p27
aa(lp28
S'To'
p29
aS'confront'
p30
aS'the'
p31
aa(lp32
S'Tonight'
p33
aS'the'
p34
aS'state'
p35
aa(lp36
S'In'
p37
aS'this'
p38
aS'decisive'
p39
aa(lp40
S'We'
p41
aS'will'
p42
aS'choose'
p43
aa(lp44
S'We'
p45
aS'will'
p46
aS'choose'
p47
aa(lp48
S'In'
p49
aS'a'
aS'complex'
p50
aa(lp51
S'The'
p52
aS'only'
p53
aS'way'
p54
aa(lp55
S'So'
p56
aS'the'
p57
aS'United'
p58
aa(lp59
S'Some'
p60
aS'dismiss'
p61
aS'that'
p62
aa(lp63
S'On'
p64
aS'September'
p65
aS'the'
p66
aa(lp67
S'Dictatorships'
p68
aS'shelter'
p69
aS'terrorists'
p70
aa(lp71
S'Democracies'
p72
aS'replace'
p73
aS'resentment'
p74
aa(lp75
S'Every'
p76
aS'step'
p77
aS'toward'
p78
aa(lp79
S'Far'
p80
aS'from'
p81
aS'being'
p82
aa(lp83
S'At'
p84
aS'the'
p85
aS'start'
p86
aa(lp87
S'And'
p88
aS'we'
p89
aS'do'
p90
aa(lp91
S'No'
p92
aS'one'
p93
aS'can'
p94
aa(lp95
S'And'
p96
aS'one'
p97
aS'of'
p98
aa(lp99
S'Terrorists'
p100
aS'like'
p101
aS'bin'
p102
aa(lp103
S'They'
p104
aS'seek'
p105
aS'to'
p106
aa(lp107
S'Their'
p108
aS'aim'
p109
aS'is'
p110
aa(lp111
S'Lacking'
p112
aS'the'
p113
aS'military'
p114
aa(lp115
S'When'
p116
aS'they'
p117
aS'murder'
p118
aa(lp119
S'But'
p120
aS'they'
p121
aS'have'
p122
aa(lp123
S'In'
p124
aS'a'
aS'time'
p125
aa(lp126
S'If'
p127
aS'we'
p128
aS'were'
p129
aa(lp130
S'They'
p131
aS'would'
p132
aS'simply'
p133
aa(lp134
S'There'
p135
aS'is'
p136
aS'no'
p137
aa(lp138
S'By'
p139
aS'allowing'
p140
aS'radical'
p141
aa(lp142
S'But'
p143
aS'our'
p144
aS'enemies'
p145
aa(lp146
S'America'
p147
aS'rejects'
p148
aS'the'
p149
aa(lp150
S'We'
p151
aS'are'
p152
aS'the'
p153
aa(lp154
S'We'
p155
aS'remain'
p156
aS'on'
p157
aa(lp158
S'We'
p159
aS'have'
p160
aS'killed'
p161
aa(lp162
S'And'
p163
aS'for'
p164
aS'the'
p165
aa(lp166
S'We'
p167
aS'remain'
p168
aS'on'
p169
aa(lp170
S'Iraqis'
p171
aS'are'
p172
aS'showing'
p173
aa(lp174
S'Our'
p175
aS'work'
p176
aS'in'
p177
aa(lp178
S'But'
p179
aS'that'
p180
aS'brutality'
p181
aa(lp182
S'In'
p183
aS'less'
p184
aS'than'
p185
aa(lp186
S'At'
p187
aS'the'
p188
aS'same'
p189
aa(lp190
S'I'
aS'am'
p191
aS'confident'
p192
aa(lp193
S'The'
p194
aS'road'
p195
aS'of'
p196
aa(lp197
S'As'
p198
aS'we'
p199
aS'make'
p200
aa(lp201
S'But'
p202
aS'those'
p203
aS'decisions'
p204
aa(lp205
S'Our'
p206
aS'coalition'
p207
aS'has'
p208
aa(lp209
S'Along'
p210
aS'the'
p211
aS'way'
p212
aa(lp213
S'In'
p214
aS'the'
p215
aS'coming'
p216
aa(lp217
S'Yet'
p218
aS'there'
p219
aS'is'
p220
aa(lp221
S'Hindsight'
p222
aS'alone'
p223
aS'is'
p224
aa(lp225
S'With'
p226
aS'so'
p227
aS'much'
p228
aa(lp229
S'A'
aS'sudden'
p230
aS'withdrawal'
p231
aa(lp232
S'Members'
p233
aS'of'
p234
aS'Congress'
p235
aa(lp236
S'Our'
p237
aS'men'
p238
aS'and'
p239
aa(lp240
S'They'
p241
aS'know'
p242
aS'what'
p243
aa(lp244
S'And'
p245
aS'those'
p246
aS'who'
p247
aa(lp248
S'Marine'
p249
aS'Staff'
p250
aS'Sergeant'
p251
aa(lp252
S'He'
p253
aS'left'
p254
aS'behind'
p255
aa(lp256
S'Here'
p257
aS'is'
p258
aS'what'
p259
aa(lp260
S'I'
aS'faced'
p261
aS'death'
p262
aa(lp263
S'Staff'
p264
aS'Sergeant'
p265
aS'Dan'
p266
aa(lp267
S'Our'
p268
aS'Nation'
p269
aS'is'
p270
aa(lp271
S'And'
p272
aS'as'
p273
aS'we'
p274
aa(lp275
S'Our'
p276
aS'offensive'
p277
aS'against'
p278
aa(lp279
S'So'
p280
aS'the'
p281
aS'United'
p282
aa(lp283
S'Elections'
p284
aS'are'
p285
aS'vital'
p286
aa(lp287
S'Raising'
p288
aS'up'
p289
aS'a'
aa(lp290
S'The'
p291
aS'great'
p292
aS'people'
p293
aa(lp294
S'The'
p295
aS'Palestinian'
p296
aS'people'
p297
aa(lp298
S'Saudi'
p299
aS'Arabia'
p300
aS'has'
p301
aa(lp302
S'Democracies'
p303
aS'in'
p304
aS'the'
p305
aa(lp306
S'Yet'
p307
aS'liberty'
p308
aS'is'
p309
aa(lp310
S'The'
p311
aS'same'
p312
aS'is'
p313
aa(lp314
S'The'
p315
aS'regime'
p316
aS'in'
p317
aa(lp318
S'The'
p319
aS'Iranian'
p320
aS'Government'
p321
aa(lp322
S'America'
p323
aS'will'
p324
aS'continue'
p325
aa(lp326
S'Tonight'
p327
aS'let'
p328
aS'me'
p329
aa(lp330
S'We'
p331
aS'respect'
p332
aS'your'
p333
aa(lp334
S'And'
p335
aS'our'
p336
aS'Nation'
p337
aa(lp338
S'To'
p339
aS'overcome'
p340
aS'dangers'
p341
aa(lp342
S'Isolationism'
p343
aS'would'
p344
aS'not'
p345
aa(lp346
S'We'
p347
aS'show'
p348
aS'compassion'
p349
aa(lp350
S'We'
p351
aS'also'
p352
aS'show'
p353
aa(lp354
S'In'
p355
aS'recent'
p356
aS'years'
p357
aa(lp358
S'For'
p359
aS'people'
p360
aS'everywhere'
p361
aa(lp362
S'Shortchanging'
p363
aS'these'
p364
aS'efforts'
p365
aa(lp366
S'I'
aS'urge'
p367
aS'Members'
p368
aa(lp369
S'Our'
p370
aS'country'
p371
aS'must'
p372
aa(lp373
S'The'
p374
aS'enemy'
p375
aS'has'
p376
aa(lp377
S'These'
p378
aS'men'
p379
aS'and'
p380
aa(lp381
S'They'
p382
aS'also'
p383
aS'deserve'
p384
aa(lp385
S'It'
p386
aS'is'
p387
aS'said'
p388
aa(lp389
S'We'
p390
aS'now'
p391
aS'know'
p392
aa(lp393
S'But'
p394
aS'we'
p395
aS'did'
p396
aa(lp397
S'So'
p398
aS'to'
p399
aS'prevent'
p400
aa(lp401
S'Previous'
p402
aS'Presidents'
p403
aS'have'
p404
aa(lp405
S'Appropriate'
p406
aS'Members'
p407
aS'of'
p408
aa(lp409
S'The'
p410
aS'terrorist'
p411
aS'surveillance'
p412
aa(lp413
S'It'
p414
aS'remains'
p415
aS'essential'
p416
aa(lp417
S'If'
p418
aS'there'
p419
aS'are'
p420
aa(lp421
S'In'
p422
aS'all'
p423
aS'these'
p424
aa(lp425
S'To'
p426
aS'draw'
p427
aS'that'
p428
aa(lp429
S'The'
p430
aS'only'
p431
aS'alternative'
p432
aa(lp433
S'Yet'
p434
aS'we'
p435
aS'also'
p436
aa(lp437
S'Our'
p438
aS'own'
p439
aS'generation'
p440
aa(lp441
S'And'
p442
aS'tonight'
p443
aS'I'
aa(lp444
S'Here'
p445
aS'at'
p446
aS'home'
p447
aa(lp448
S'Our'
p449
aS'economy'
p450
aS'is'
p451
aa(lp452
S'In'
p453
aS'the'
p454
aS'last'
p455
aa(lp456
S'Even'
p457
aS'in'
p458
aS'the'
p459
aa(lp460
S'The'
p461
aS'American'
p462
aS'economy'
p463
aa(lp464
S'In'
p465
aS'a'
aS'dynamic'
p466
aa(lp467
S'Protectionists'
p468
aS'want'
p469
aS'to'
p470
aa(lp471
S'Others'
p472
aS'say'
p473
aS'that'
p474
aa(lp475
S'We'
p476
aS'hear'
p477
aS'claims'
p478
aa(lp479
S'All'
p480
aS'these'
p481
aS'are'
p482
aa(lp483
S'Tonight'
p484
aS'I'
aS'will'
p485
aa(lp486
S'Americans'
p487
aS'should'
p488
aS'not'
p489
aa(lp490
S'Keeping'
p491
aS'America'
p492
aS'competitive'
p493
aa(lp494
S'And'
p495
aS'our'
p496
aS'economy'
p497
aa(lp498
S'In'
p499
aS'the'
p500
aS'last'
p501
aa(lp502
S'And'
p503
aS'they'
p504
aS'have'
p505
aa(lp506
S'Yet'
p507
aS'the'
p508
aS'tax'
p509
aa(lp510
S'If'
p511
aS'we'
p512
aS'do'
p513
aa(lp514
S'Because'
p515
aS'America'
p516
aS'needs'
p517
aa(lp518
S'Keeping'
p519
aS'America'
p520
aS'competitive'
p521
aa(lp522
S'Every'
p523
aS'year'
p524
aS'of'
p525
aa(lp526
S'By'
p527
aS'passing'
p528
aS'these'
p529
aa(lp530
S'I'
aS'am'
p531
aS'pleased'
p532
aa(lp533
S'And'
p534
aS'we'
p535
aS'can'
p536
aa(lp537
S'We'
p538
aS'must'
p539
aS'also'
p540
aa(lp541
S'The'
p542
aS'retirement'
p543
aS'of'
p544
aa(lp545
S'And'
p546
aS'that'
p547
aS'will'
p548
aa(lp549
S'Congress'
p550
aS'did'
p551
aS'not'
p552
aa(lp553
S'And'
p554
aS'every'
p555
aS'year'
p556
aa(lp557
S'So'
p558
aS'tonight'
p559
aS'I'
aa(lp560
S'This'
p561
aS'commission'
p562
aS'should'
p563
aa(lp564
S'We'
p565
aS'need'
p566
aS'to'
p567
aa(lp568
S'Keeping'
p569
aS'America'
p570
aS'competitive'
p571
aa(lp572
S'One'
p573
aS'out'
p574
aS'of'
p575
aa(lp576
S'With'
p577
aS'open'
p578
aS'markets'
p579
aa(lp580
S'Keeping'
p581
aS'America'
p582
aS'competitive'
p583
aa(lp584
S'Our'
p585
aS'Nation'
p586
aS'needs'
p587
aa(lp588
S'To'
p589
aS'meet'
p590
aS'this'
p591
aa(lp592
S'And'
p593
aS'we'
p594
aS'must'
p595
aa(lp596
S'Keeping'
p597
aS'America'
p598
aS'competitive'
p599
aa(lp600
S'Our'
p601
aS'Government'
p602
aS'has'
p603
aa(lp604
S'For'
p605
aS'all'
p606
aS'Americans'
p607
aa(lp608
S'We'
p609
aS'will'
p610
aS'make'
p611
aa(lp612
S'We'
p613
aS'will'
p614
aS'strengthen'
p615
aa(lp616
S'We'
p617
aS'will'
p618
aS'do'
p619
aa(lp620
S'And'
p621
aS'because'
p622
aS'lawsuits'
p623
aa(lp624
S'Keeping'
p625
aS'America'
p626
aS'competitive'
p627
aa(lp628
S'And'
p629
aS'here'
p630
aS'we'
p631
aa(lp632
S'The'
p633
aS'best'
p634
aS'way'
p635
aa(lp636
S'And'
p637
aS'we'
p638
aS'are'
p639
aa(lp640
S'So'
p641
aS'tonight'
p642
aS'I'
aa(lp643
S'To'
p644
aS'change'
p645
aS'how'
p646
aa(lp647
S'We'
p648
aS'must'
p649
aS'also'
p650
aa(lp651
S'We'
p652
aS'will'
p653
aS'increase'
p654
aa(lp655
S'Our'
p656
aS'goal'
p657
aS'is'
p658
aa(lp659
S'Breakthroughs'
p660
aS'on'
p661
aS'this'
p662
aa(lp663
S'By'
p664
aS'applying'
p665
aS'the'
p666
aa(lp667
S'And'
p668
aS'to'
p669
aS'keep'
p670
aa(lp671
S'Our'
p672
aS'greatest'
p673
aS'advantage'
p674
aa(lp675
S'Tonight'
p676
aS'I'
aS'announce'
p677
aa(lp678
S'This'
p679
aS'funding'
p680
aS'will'
p681
aa(lp682
S'With'
p683
aS'more'
p684
aS'research'
p685
aa(lp686
S'Tonight'
p687
aS'I'
aS'propose'
p688
aa(lp689
S'If'
p690
aS'we'
p691
aS'ensure'
p692
aa(lp693
S'Preparing'
p694
aS'our'
p695
aS'Nation'
p696
aa(lp697
S'I'
aS'urge'
p698
aS'you'
p699
aa(lp700
S'America'
p701
aS'is'
p702
aS'a'
aa(lp703
S'Yet'
p704
aS'our'
p705
aS'greatness'
p706
aa(lp707
S'So'
p708
aS'we'
p709
aS'strive'
p710
aa(lp711
S'In'
p712
aS'recent'
p713
aS'years'
p714
aa(lp715
S'Violent'
p716
aS'crime'
p717
aS'rates'
p718
aa(lp719
S'Welfare'
p720
aS'cases'
p721
aS'have'
p722
aa(lp723
S'Drug'
p724
aS'use'
p725
aS'among'
p726
aa(lp727
S'There'
p728
aS'are'
p729
aS'fewer'
p730
aa(lp731
S'These'
p732
aS'gains'
p733
aS'are'
p734
aa(lp735
S'Government'
p736
aS'has'
p737
aS'played'
p738
aa(lp739
S'And'
p740
aS'everyone'
p741
aS'here'
p742
aa(lp743
S'Yet'
p744
aS'many'
p745
aS'Americans'
p746
aa(lp747
S'They'
p748
aS'worry'
p749
aS'about'
p750
aa(lp751
S'As'
p752
aS'we'
p753
aS'look'
p754
aa(lp755
S'The'
p756
aS'American'
p757
aS'people'
p758
aa(lp759
S'We'
p760
aS'have'
p761
aS'proven'
p762
aa(lp763
S'A'
aS'hopeful'
p764
aS'society'
p765
aa(lp766
S'The'
p767
aS'Supreme'
p768
aS'Court'
p769
aa(lp770
S'I'
aS'thank'
p771
aS'the'
p772
aa(lp773
S'I'
aS'will'
p774
aS'continue'
p775
aa(lp776
S'Today'
p777
aS'marks'
p778
aS'the'
p779
aa(lp780
S'A'
aS'hopeful'
p781
aS'society'
p782
aa(lp783
S'Tonight'
p784
aS'I'
aS'ask'
p785
aa(lp786
S'Human'
p787
aS'life'
p788
aS'is'
p789
aa(lp790
S'A'
aS'hopeful'
p791
aS'society'
p792
aa(lp793
S'Honorable'
p794
aS'people'
p795
aS'in'
p796
aa(lp797
S'I'
aS'support'
p798
aS'your'
p799
aa(lp800
S'Each'
p801
aS'of'
p802
aS'us'
p803
aa(lp804
S'As'
p805
aS'we'
p806
aS'renew'
p807
aa(lp808
S'A'
aS'hopeful'
p809
aS'society'
p810
aa(lp811
S'Through'
p812
aS'the'
p813
aS'Helping'
p814
aa(lp815
S'And'
p816
aS'this'
p817
aS'good'
p818
aa(lp819
S'A'
aS'hopeful'
p820
aS'society'
p821
aa(lp822
S'So'
p823
aS'far'
p824
aS'the'
p825
aa(lp826
S'Yet'
p827
aS'as'
p828
aS'we'
p829
aa(lp830
S'In'
p831
aS'New'
p832
aS'Orleans'
p833
aa(lp834
S'The'
p835
aS'answer'
p836
aS'is'
p837
aa(lp838
S'As'
p839
aS'we'
p840
aS'recover'
p841
aa(lp842
S'A'
aS'hopeful'
p843
aS'society'
p844
aa(lp845
S'More'
p846
aS'than'
p847
aS'a'
aa(lp848
S'I'
aS'ask'
p849
aS'Congress'
p850
aa(lp851
S'We'
p852
aS'will'
p853
aS'also'
p854
aa(lp855
S'We'
p856
aS'see'
p857
aS'great'
p858
aa(lp859
S'Sometimes'
p860
aS'it'
p861
aS'can'
p862
aa(lp863
S'Yet'
p864
aS'the'
p865
aS'destination'
p866
aa(lp867
S'Lincoln'
p868
aS'could'
p869
aS'have'
p870
aa(lp871
S'Martin'
p872
aS'Luther'
p873
aS'King'
p874
aa(lp875
S'The'
p876
aS'United'
p877
aS'States'
p878
aa(lp879
S'Before'
p880
aS'history'
p881
aS'is'
p882
aa(lp883
S'Like'
p884
aS'Americans'
p885
aS'before'
p886
aa(lp887
S'We'
p888
aS'will'
p889
aS'lead'
p890
aa(lp891
S'We'
p892
aS'will'
p893
aS'compete'
p894
aa(lp895
S'We'
p896
aS'will'
p897
aS'renew'
p898
aa(lp899
S'And'
p900
aS'so'
p901
aS'we'
p902
aa.