(lp1
(lp2
S'But'
p3
aS'when'
p4
aS'the'
p5
aa(lp6
S'When'
p7
aS'the'
p8
aS'market'
p9
aa(lp10
S'These'
p11
aS'were'
p12
aS'the'
p13
aa(lp14
S'And'
p15
aS'despite'
p16
aS'all'
p17
aa(lp18
S'One'
p19
aS'year'
p20
aS'ago'
p21
aa(lp22
S'Experts'
p23
aS'from'
p24
aS'across'
p25
aa(lp26
S'So'
p27
aS'we'
p28
aS'acted'
p29
aa(lp30
S'But'
p31
aS'the'
p32
aS'devastation'
p33
aa(lp34
S'Many'
p35
aS'businesses'
p36
aS'have'
p37
aa(lp38
S'Home'
p39
aS'values'
p40
aS'have'
p41
aa(lp42
S'Small'
p43
aS'towns'
p44
aS'and'
p45
aa(lp46
S'And'
p47
aS'for'
p48
aS'those'
p49
aa(lp50
S'This'
p51
aS'recession'
p52
aS'has'
p53
aa(lp54
S'So'
p55
aS'I'
aS'know'
p56
aa(lp57
S'These'
p58
aS'struggles'
p59
aS'are'
p60
aa(lp61
S'These'
p62
aS'struggles'
p63
aS'are'
p64
aa(lp65
S'I'
aS'hear'
p66
aS'about'
p67
aa(lp68
S'The'
p69
aS'toughest'
p70
aS'to'
p71
aa(lp72
S'For'
p73
aS'these'
p74
aS'Americans'
p75
aa(lp76
S'Some'
p77
aS'are'
p78
aS'frustrated'
p79
aa(lp80
S'They'
p81
aS'know'
p82
aS'we'
p83
aa(lp84
S'So'
p85
aS'we'
p86
aS'face'
p87
aa(lp88
S'And'
p89
aS'what'
p90
aS'the'
p91
aa(lp92
S'For'
p93
aS'while'
p94
aS'the'
p95
aa(lp96
S'The'
p97
aS'aspirations'
p98
aS'they'
p99
aa(lp100
S'And'
p101
aS'you'
p102
aS'know'
p103
aa(lp104
S'They'
p105
aS'share'
p106
aS'a'
aa(lp107
S'After'
p108
aS'one'
p109
aS'of'
p110
aa(lp111
S'One'
p112
aS'woman'
p113
aS'wrote'
p114
aa(lp115
S'Despite'
p116
aS'our'
p117
aS'hardships'
p118
aa(lp119
S'We'
p120
aS'do'
p121
aS'not'
p122
aa(lp123
S'We'
p124
aS'do'
p125
aS'not'
p126
aa(lp127
S'We'
p128
aS'do'
p129
aS'not'
p130
aa(lp131
S'In'
p132
aS'this'
p133
aS'new'
p134
aa(lp135
S'And'
p136
aS'tonight'
p137
aS'I'
aa(lp138
S'It'
p139
aS'begins'
p140
aS'with'
p141
aa(lp142
S'Our'
p143
aS'most'
p144
aS'urgent'
p145
aa(lp146
S'It'
p147
aS'was'
p148
aS'not'
p149
aa(lp150
S'And'
p151
aS'if'
p152
aS'there'
p153
aa(lp154
S'I'
aS'hated'
p155
aS'it'
p156
aa(lp157
S'I'
aS'hated'
p158
aS'it'
p159
aa(lp160
S'It'
p161
aS'was'
p162
aS'about'
p163
aa(lp164
S'But'
p165
aS'when'
p166
aS'I'
aa(lp167
S'And'
p168
aS'if'
p169
aS'we'
p170
aa(lp171
S'More'
p172
aS'businesses'
p173
aS'would'
p174
aa(lp175
S'More'
p176
aS'homes'
p177
aS'would'
p178
aa(lp179
S'So'
p180
aS'I'
aS'supported'
p181
aa(lp182
S'And'
p183
aS'when'
p184
aS'we'
p185
aa(lp186
S'And'
p187
aS'as'
p188
aS'a'
aa(lp189
S'To'
p190
aS'recover'
p191
aS'the'
p192
aa(lp193
S'But'
p194
aS'if'
p195
aS'these'
p196
aa(lp197
S'We'
p198
aS'cut'
p199
aS'taxes'
p200
aa(lp201
S'We'
p202
aS'cut'
p203
aS'taxes'
p204
aa(lp205
S'We'
p206
aS'cut'
p207
aS'taxes'
p208
aa(lp209
S'We'
p210
aS'cut'
p211
aS'taxes'
p212
aa(lp213
S'We'
p214
aS'cut'
p215
aS'taxes'
p216
aa(lp217
S'As'
p218
aS'a'
aS'result'
p219
aa(lp220
S'And'
p221
aS'we'
p222
aS'have'
p223
aa(lp224
S'Two'
p225
aS'hundred'
p226
aS'thousand'
p227
aa(lp228
S'Three'
p229
aS'hundred'
p230
aS'thousand'
p231
aa(lp232
S'Tens'
p233
aS'of'
p234
aS'thousands'
p235
aa(lp236
S'The'
p237
aS'plan'
p238
aS'that'
p239
aa(lp240
S'Economists'
p241
aS'on'
p242
aS'the'
p243
aa(lp244
S'But'
p245
aS'you'
p246
aS'do'
p247
aa(lp248
S'Talk'
p249
aS'to'
p250
aS'the'
p251
aa(lp252
S'Talk'
p253
aS'to'
p254
aS'the'
p255
aa(lp256
S'Talk'
p257
aS'to'
p258
aS'the'
p259
aa(lp260
S'There'
p261
aS'are'
p262
aS'stories'
p263
aa(lp264
S'Retirement'
p265
aS'funds'
p266
aS'have'
p267
aa(lp268
S'Businesses'
p269
aS'are'
p270
aS'beginning'
p271
aa(lp272
S'But'
p273
aS'I'
aS'realize'
p274
aa(lp275
S'That'
p276
aS'is'
p277
aS'why'
p278
aa(lp279
S'But'
p280
aS'Government'
p281
aS'can'
p282
aa(lp283
S'We'
p284
aS'should'
p285
aS'start'
p286
aa(lp287
S'Through'
p288
aS'sheer'
p289
aS'grit'
p290
aa(lp291
S'But'
p292
aS'when'
p293
aS'you'
p294
aa(lp295
S'Financing'
p296
aS'remains'
p297
aS'difficult'
p298
aa(lp299
S'So'
p300
aS'tonight'
p301
aS'I'
aa(lp302
S'From'
p303
aS'the'
p304
aS'first'
p305
aa(lp306
S'There'
p307
aS'are'
p308
aS'projects'
p309
aa(lp310
S'We'
p311
aS'should'
p312
aS'put'
p313
aa(lp314
S'And'
p315
aS'to'
p316
aS'encourage'
p317
aa(lp318
S'As'
p319
aS'the'
p320
aS'first'
p321
aa(lp322
S'People'
p323
aS'are'
p324
aS'out'
p325
aa(lp326
S'They'
p327
aS'need'
p328
aS'our'
p329
aa(lp330
S'And'
p331
aS'I'
aS'want'
p332
aa(lp333
S'But'
p334
aS'the'
p335
aS'truth'
p336
aa(lp337
S'The'
p338
aS'only'
p339
aS'way'
p340
aa(lp341
S'From'
p342
aS'the'
p343
aS'day'
p344
aa(lp345
S'For'
p346
aS'those'
p347
aS'who'
p348
aa(lp349
S'How'
p350
aS'long'
p351
aS'should'
p352
aa(lp353
S'These'
p354
aS'nations'
p355
aS'are'
p356
aa(lp357
S'These'
p358
aS'nations'
p359
aS'are'
p360
aa(lp361
S'As'
p362
aS'hard'
p363
aS'as'
p364
aa(lp365
S'It'
p366
aS'channels'
p367
aS'the'
p368
aa(lp369
S'But'
p370
aS'that'
p371
aS'can'
p372
aa(lp373
S'We'
p374
aS'need'
p375
aS'to'
p376
aa(lp377
S'But'
p378
aS'we'
p379
aS'can'
p380
aa(lp381
S'And'
p382
aS'if'
p383
aS'the'
p384
aa(lp385
S'And'
p386
aS'no'
p387
aS'area'
p388
aa(lp389
S'You'
p390
aS'can'
p391
aS'see'
p392
aa(lp393
S'But'
p394
aS'to'
p395
aS'create'
p396
aa(lp397
S'And'
p398
aS'that'
p399
aS'means'
p400
aa(lp401
S'It'
p402
aS'means'
p403
aS'making'
p404
aa(lp405
S'It'
p406
aS'means'
p407
aS'continued'
p408
aa(lp409
S'And'
p410
aS'this'
p411
aS'year'
p412
aa(lp413
S'I'
aS'know'
p414
aS'there'
p415
aa(lp416
S'I'
aS'know'
p417
aS'that'
p418
aa(lp419
S'And'
p420
aS'America'
p421
aS'must'
p422
aa(lp423
S'So'
p424
aS'tonight'
p425
aS'we'
p426
aa(lp427
S'To'
p428
aS'help'
p429
aS'meet'
p430
aa(lp431
S'We'
p432
aS'have'
p433
aS'to'
p434
aa(lp435
S'If'
p436
aS'America'
p437
aS'sits'
p438
aa(lp439
S'But'
p440
aS'realizing'
p441
aS'those'
p442
aa(lp443
S'And'
p444
aS'the'
p445
aS'idea'
p446
aa(lp447
S'Instead'
p448
aS'of'
p449
aS'funding'
p450
aa(lp451
S'And'
p452
aS'in'
p453
aS'this'
p454
aa(lp455
S'When'
p456
aS'we'
p457
aS'renew'
p458
aa(lp459
S'To'
p460
aS'make'
p461
aS'college'
p462
aa(lp463
S'And'
p464
aS'by'
p465
aS'the'
p466
aa(lp467
S'The'
p468
aS'steps'
p469
aS'we'
p470
aa(lp471
S'And'
p472
aS'it'
p473
aS'is'
p474
aa(lp475
S'And'
p476
aS'by'
p477
aS'now'
p478
aa(lp479
S'After'
p480
aS'nearly'
p481
aS'a'
aa(lp482
S'The'
p483
aS'approach'
p484
aS'we'
p485
aa(lp486
S'It'
p487
aS'would'
p488
aS'give'
p489
aa(lp490
S'It'
p491
aS'would'
p492
aS'require'
p493
aa(lp494
S'And'
p495
aS'by'
p496
aS'the'
p497
aa(lp498
S'She'
p499
aS'gets'
p500
aS'embarrassed'
p501
aa(lp502
S'Our'
p503
aS'approach'
p504
aS'would'
p505
aa(lp506
S'It'
p507
aS'would'
p508
aS'reduce'
p509
aa(lp510
S'And'
p511
aS'according'
p512
aS'to'
p513
aa(lp514
S'I'
aS'take'
p515
aS'my'
p516
aa(lp517
S'And'
p518
aS'I'
aS'know'
p519
aa(lp520
S'But'
p521
aS'I'
aS'also'
p522
aa(lp523
S'By'
p524
aS'the'
p525
aS'time'
p526
aa(lp527
S'Millions'
p528
aS'will'
p529
aS'lose'
p530
aa(lp531
S'Our'
p532
aS'deficit'
p533
aS'will'
p534
aa(lp535
S'Premiums'
p536
aS'will'
p537
aS'go'
p538
aa(lp539
S'Patients'
p540
aS'will'
p541
aS'be'
p542
aa(lp543
S'I'
aS'will'
p544
aS'not'
p545
aa(lp546
S'So'
p547
aS'as'
p548
aS'temperatures'
p549
aa(lp550
S'But'
p551
aS'if'
p552
aS'anyone'
p553
aa(lp554
S'Let'
p555
aS'me'
p556
aS'know'
p557
aa(lp558
S'Let'
p559
aS'me'
p560
aS'know'
p561
aa(lp562
S'Not'
p563
aS'when'
p564
aS'we'
p565
aa(lp566
S'Let'
p567
aS'us'
p568
aS'find'
p569
aa(lp570
S'So'
p571
aS'let'
p572
aS'me'
p573
aa(lp574
S'At'
p575
aS'the'
p576
aS'beginning'
p577
aa(lp578
S'By'
p579
aS'the'
p580
aS'time'
p581
aa(lp582
S'Most'
p583
aS'of'
p584
aS'this'
p585
aa(lp586
S'On'
p587
aS'top'
p588
aS'of'
p589
aa(lp590
S'All'
p591
aS'this'
p592
aS'was'
p593
aa(lp594
S'But'
p595
aS'we'
p596
aS'took'
p597
aa(lp598
S'And'
p599
aS'our'
p600
aS'efforts'
p601
aa(lp602
S'That'
p603
aS'too'
p604
aS'is'
p605
aa(lp606
S'But'
p607
aS'families'
p608
aS'across'
p609
aa(lp610
S'The'
p611
aS'Federal'
p612
aS'Government'
p613
aa(lp614
S'So'
p615
aS'tonight'
p616
aS'I'
aa(lp617
S'Spending'
p618
aS'related'
p619
aS'to'
p620
aa(lp621
S'But'
p622
aS'all'
p623
aS'other'
p624
aa(lp625
S'And'
p626
aS'if'
p627
aS'I'
aa(lp628
S'We'
p629
aS'will'
p630
aS'continue'
p631
aa(lp632
S'To'
p633
aS'help'
p634
aS'working'
p635
aa(lp636
S'But'
p637
aS'at'
p638
aS'a'
aa(lp639
S'We'
p640
aS'just'
p641
aS'ca'
p642
aa(lp643
S'The'
p644
aS'commission'
p645
aS'will'
p646
aa(lp647
S'And'
p648
aS'when'
p649
aS'the'
p650
aa(lp651
S'And'
p652
aS'I'
aS'agree'
p653
aa(lp654
S'From'
p655
aS'some'
p656
aS'on'
p657
aa(lp658
S'The'
p659
aS'problem'
p660
aS'is'
p661
aa(lp662
S'Rather'
p663
aS'than'
p664
aS'fight'
p665
aa(lp666
S'We'
p667
aS'face'
p668
aS'a'
aa(lp669
S'To'
p670
aS'close'
p671
aS'that'
p672
aa(lp673
S'But'
p674
aS'we'
p675
aS'ca'
p676
aa(lp677
S'With'
p678
aS'all'
p679
aS'due'
p680
aa(lp681
S'They'
p682
aS'should'
p683
aS'be'
p684
aa(lp685
S'I'
aS'never'
p686
aS'thought'
p687
aa(lp688
S'I'
aS'knew'
p689
aS'that'
p690
aa(lp691
S'And'
p692
aS'on'
p693
aS'some'
p694
aa(lp695
S'But'
p696
aS'what'
p697
aS'frustrates'
p698
aa(lp699
S'Neither'
p700
aS'party'
p701
aS'should'
p702
aa(lp703
S'The'
p704
aS'confirmation'
p705
aS'of'
p706
aa(lp707
S'Washington'
p708
aS'may'
p709
aS'think'
p710
aa(lp711
S'I'
aS'know'
p712
aS'it'
p713
aa(lp714
S'And'
p715
aS'after'
p716
aS'last'
p717
aa(lp718
S'But'
p719
aS'we'
p720
aS'still'
p721
aa(lp722
S'And'
p723
aS'if'
p724
aS'the'
p725
aa(lp726
S'Just'
p727
aS'saying'
p728
aS'no'
p729
aa(lp730
S'We'
p731
aS'were'
p732
aS'sent'
p733
aa(lp734
S'I'
aS'know'
p735
aS'you'
p736
aa(lp737
S'And'
p738
aS'we'
p739
aS'can'
p740
aa(lp741
S'I'
aS'know'
p742
aS'that'
p743
aa(lp744
S'All'
p745
aS'of'
p746
aS'us'
p747
aa(lp748
S'Since'
p749
aS'the'
p750
aS'day'
p751
aa(lp752
S'We'
p753
aS'are'
p754
aS'filling'
p755
aa(lp756
S'And'
p757
aS'in'
p758
aS'the'
p759
aa(lp760
S'And'
p761
aS'in'
p762
aS'Afghanistan'
p763
aa(lp764
S'We'
p765
aS'will'
p766
aS'reward'
p767
aa(lp768
S'There'
p769
aS'will'
p770
aS'be'
p771
aa(lp772
S'As'
p773
aS'we'
p774
aS'take'
p775
aa(lp776
S'As'
p777
aS'a'
aS'candidate'
p778
aa(lp779
S'We'
p780
aS'will'
p781
aS'have'
p782
aa(lp783
S'We'
p784
aS'will'
p785
aS'support'
p786
aa(lp787
S'But'
p788
aS'make'
p789
aS'no'
p790
aa(lp791
S'Tonight'
p792
aS'all'
p793
aS'of'
p794
aa(lp795
S'And'
p796
aS'just'
p797
aS'as'
p798
aa(lp799
S'To'
p800
aS'reduce'
p801
aS'our'
p802
aa(lp803
S'And'
p804
aS'at'
p805
aS'April'
p806
aa(lp807
S'And'
p808
aS'as'
p809
aS'Iran'
p810
aa(lp811
S'That'
p812
aS'is'
p813
aS'a'
aa(lp814
S'We'
p815
aS'have'
p816
aS'gone'
p817
aa(lp818
S'And'
p819
aS'we'
p820
aS'are'
p821
aa(lp822
S'As'
p823
aS'we'
p824
aS'have'
p825
aa(lp826
S'But'
p827
aS'we'
p828
aS'also'
p829
aa(lp830
S'For'
p831
aS'America'
p832
aS'must'
p833
aa(lp834
S'The'
p835
aS'same'
p836
aS'is'
p837
aa(lp838
S'We'
p839
aS'find'
p840
aS'unity'
p841
aa(lp842
S'We'
p843
aS'must'
p844
aS'continually'
p845
aa(lp846
S'My'
p847
aS'administration'
p848
aS'has'
p849
aa(lp850
S'We'
p851
aS'finally'
p852
aS'strengthened'
p853
aa(lp854
S'And'
p855
aS'we'
p856
aS'should'
p857
aa(lp858
S'In'
p859
aS'the'
p860
aS'end'
p861
aa(lp862
S'Time'
p863
aS'and'
p864
aS'again'
p865
aa(lp866
S'They'
p867
aS'take'
p868
aS'pride'
p869
aa(lp870
S'Each'
p871
aS'of'
p872
aS'these'
p873
aa(lp874
S'But'
p875
aS'each'
p876
aS'time'
p877
aa(lp878
S'Each'
p879
aS'time'
p880
aS'lobbyists'
p881
aa(lp882
S'The'
p883
aS'more'
p884
aS'that'
p885
aa(lp886
S'No'
p887
aS'wonder'
p888
aS'there'
p889
aa(lp890
S'No'
p891
aS'wonder'
p892
aS'there'
p893
aa(lp894
S'I'
aS'campaigned'
p895
aS'on'
p896
aa(lp897
S'Change'
p898
aS'we'
p899
aS'can'
p900
aa(lp901
S'And'
p902
aS'right'
p903
aS'now'
p904
aa(lp905
S'But'
p906
aS'remember'
p907
aS'this'
p908
aa(lp909
S'Democracy'
p910
aS'in'
p911
aS'a'
aa(lp912
S'And'
p913
aS'when'
p914
aS'you'
p915
aa(lp916
S'Those'
p917
aS'of'
p918
aS'us'
p919
aa(lp920
S'We'
p921
aS'can'
p922
aS'do'
p923
aa(lp924
S'But'
p925
aS'I'
aS'also'
p926
aa(lp927
S'The'
p928
aS'only'
p929
aS'reason'
p930
aa(lp931
S'But'
p932
aS'I'
aS'wake'
p933
aa(lp934
S'And'
p935
aS'what'
p936
aS'keeps'
p937
aa(lp938
S'It'
p939
aS'lives'
p940
aS'on'
p941
aa(lp942
S'are'
p943
aS'willing'
p944
aS'to'
p945
aa(lp946
S'We'
p947
aS'are'
p948
aS'resilient'
p949
aa(lp950
S'We'
p951
aS'are'
p952
aS'American'
p953
aa(lp954
S'And'
p955
aS'it'
p956
aS'lives'
p957
aa(lp958
S'The'
p959
aS'spirit'
p960
aS'that'
p961
aa(lp962
S'We'
p963
aS'have'
p964
aS'finished'
p965
aa(lp966
S'We'
p967
aS'have'
p968
aS'come'
p969
aa(lp970
S'But'
p971
aS'a'
aS'new'
p972
aa(lp973
S'A'
aS'new'
p974
aS'decade'
p975
aa.