(lp1
(lp2
S'I'
aS'had'
p3
aS'a'
aa(lp4
S'But'
p5
aS'I'
aS'went'
p6
aa(lp7
S'You'
p8
aS'had'
p9
aS'some'
p10
aa(lp11
S'So'
p12
aS'keep'
p13
aS'your'
p14
aa(lp15
S'Keep'
p16
aS'your'
p17
aS'chin'
p18
aa(lp19
S'I'
aS'want'
p20
aS'to'
p21
aa(lp22
S'Where'
p23
aS'is'
p24
aS'he'
p25
aa(lp26
S'I'
aS'want'
p27
aS'to'
p28
aa(lp29
S'There'
p30
aS'he'
p31
aS'is'
p32
aa(lp33
S'Greg'
p34
aS'is'
p35
aS'doing'
p36
aa(lp37
S'I'
aS'want'
p38
aS'to'
p39
aa(lp40
S'We'
p41
aS'really'
p42
aS'appreciate'
p43
aa(lp44
S'One'
p45
aS'last'
p46
aS'acknowledgement'
p47
aa(lp48
S'I'
aS'had'
p49
aS'a'
aa(lp50
S'We'
p51
aS'keep'
p52
aS'them'
p53
aa(lp54
S'But'
p55
aS'Gabby'
p56
aS'is'
p57
aa(lp58
S'She'
p59
aS'looks'
p60
aS'wonderful'
p61
aa(lp62
S'Even'
p63
aS'as'
p64
aS'she'
p65
aa(lp66
S'And'
p67
aS'her'
p68
aS'brother'
p69
aa(lp70
S'He'
p71
aS'was'
p72
aS'just'
p73
aa(lp74
S'Because'
p75
aS'the'
p76
aS'country'
p77
aa(lp78
S'And'
p79
aS'let'
p80
aS'there'
p81
aa(lp82
S'Here'
p83
aS'are'
p84
aS'the'
p85
aa(lp86
S'And'
p87
aS'by'
p88
aS'the'
p89
aa(lp90
S'Although'
p91
aS'I'
aS'was'
p92
aa(lp93
S'But'
p94
aS'while'
p95
aS'it'
p96
aa(lp97
S'And'
p98
aS'feel'
p99
aS'free'
p100
aa(lp101
S'You'
p102
aS'stop'
p103
aS'people'
p104
aa(lp105
S'The'
p106
aS'deficit'
p107
aS'has'
p108
aa(lp109
S'And'
p110
aS'maybe'
p111
aS'closest'
p112
aa(lp113
S'So'
p114
aS'these'
p115
aS'last'
p116
aa(lp117
S'But'
p118
aS'as'
p119
aS'a'
aa(lp120
S'And'
p121
aS'now'
p122
aS'that'
p123
aa(lp124
S'We'
p125
aS'can'
p126
aS'get'
p127
aa(lp128
S'We'
p129
aS'can'
p130
aS'make'
p131
aa(lp132
S'But'
p133
aS'of'
p134
aS'course'
p135
aa(lp136
S'And'
p137
aS'here'
p138
aS'in'
p139
aa(lp140
S'And'
p141
aS'for'
p142
aS'us'
p143
aa(lp144
S'So'
p145
aS'we'
p146
aS'bought'
p147
aa(lp148
S'It'
p149
aS'was'
p150
aS'in'
p151
aa(lp152
S'It'
p153
aS'was'
p154
aS'sort'
p155
aa(lp156
S'And'
p157
aS'it'
p158
aS'felt'
p159
aa(lp160
S'And'
p161
aS'then'
p162
aS'Malia'
p163
aa(lp164
S'But'
p165
aS'I'
aS'have'
p166
aa(lp167
S'When'
p168
aS'my'
p169
aS'grandfather'
p170
aa(lp171
S'For'
p172
aS'folks'
p173
aS'like'
p174
aa(lp175
S'But'
p176
aS'we'
p177
aS'all'
p178
aa(lp179
S'Families'
p180
aS'who'
p181
aS'did'
p182
aa(lp183
S'Even'
p184
aS'though'
p185
aS'somebody'
p186
aa(lp187
S'And'
p188
aS'that'
p189
aS'was'
p190
aa(lp191
S'There'
p192
aS'were'
p193
aS'folks'
p194
aa(lp195
S'There'
p196
aS'were'
p197
aS'lenders'
p198
aa(lp199
S'So'
p200
aS'home'
p201
aS'values'
p202
aa(lp203
S'Americans'
p204
aS'sank'
p205
aS'underwater'
p206
aa(lp207
S'Builders'
p208
aS'stopped'
p209
aS'building'
p210
aa(lp211
S'Construction'
p212
aS'workers'
p213
aS'lost'
p214
aa(lp215
S'And'
p216
aS'when'
p217
aS'I'
aa(lp218
S'If'
p219
aS'we'
p220
aS'could'
p221
aa(lp222
S'So'
p223
aS'less'
p224
aS'than'
p225
aa(lp226
S'And'
p227
aS'I'
aS'said'
p228
aa(lp229
S'But'
p230
aS'we'
p231
aS'were'
p232
aa(lp233
S'If'
p234
aS'something'
p235
aS'did'
p236
aa(lp237
S'But'
p238
aS'we'
p239
aS'were'
p240
aa(lp241
S'And'
p242
aS'we'
p243
aS'ended'
p244
aa(lp245
S'We'
p246
aS'helped'
p247
aS'millions'
p248
aa(lp249
S'We'
p250
aS'helped'
p251
aS'folks'
p252
aa(lp253
S'We'
p254
aS'kept'
p255
aS'up'
p256
aa(lp257
S'And'
p258
aS'by'
p259
aS'the'
p260
aa(lp261
S'So'
p262
aS'as'
p263
aS'a'
aa(lp264
S'Homebuilding'
p265
aS'has'
p266
aS'more'
p267
aa(lp268
S'New'
p269
aS'foreclosures'
p270
aS'are'
p271
aa(lp272
S'Rising'
p273
aS'home'
p274
aS'prices'
p275
aa(lp276
S'It'
p277
aS'is'
p278
aS'not'
p279
aa(lp280
S'Starting'
p281
aS'this'
p282
aS'month'
p283
aa(lp284
S'And'
p285
aS'for'
p286
aS'those'
p287
aa(lp288
S'So'
p289
aS'a'
aS'lot'
p290
aa(lp291
S'Over'
p292
aS'the'
p293
aS'next'
p294
aa(lp295
S'And'
p296
aS'just'
p297
aS'to'
p298
aa(lp299
S'And'
p300
aS'we'
p301
aS'actually'
p302
aa(lp303
S'Folks'
p304
aS'lost'
p305
aS'their'
p306
aa(lp307
S'It'
p308
aS'started'
p309
aS'getting'
p310
aa(lp311
S'People'
p312
aS'were'
p313
aS'feeling'
p314
aa(lp315
S'It'
p316
aS'was'
p317
aS'starting'
p318
aa(lp319
S'Now'
p320
aS'people'
p321
aS'are'
p322
aa(lp323
S'And'
p324
aS'with'
p325
aS'the'
p326
aa(lp327
S'And'
p328
aS'keep'
p329
aS'in'
p330
aa(lp331
S'So'
p332
aS'how'
p333
aS'many'
p334
aa(lp335
S'So'
p336
aS'even'
p337
aS'though'
p338
aa(lp339
S'It'
p340
aS'means'
p341
aS'more'
p342
aa(lp343
S'So'
p344
aS'this'
p345
aS'is'
p346
aa(lp347
S'So'
p348
aS'I'
aS'want'
p349
aa(lp350
S'On'
p351
aS'the'
p352
aS'other'
p353
aa(lp354
S'These'
p355
aS'rates'
p356
aS'are'
p357
aa(lp358
S'We'
p359
aS'put'
p360
aS'in'
p361
aa(lp362
S'And'
p363
aS'we'
p364
aS'designed'
p365
aa(lp366
S'So'
p367
aS'the'
p368
aS'bottom'
p369
aa(lp370
S'But'
p371
aS'we'
p372
aS'do'
p373
aa(lp374
S'For'
p375
aS'people'
p376
aS'who'
p377
aa(lp378
S'In'
p379
aS'the'
p380
aS'end'
p381
aa(lp382
S'And'
p383
aS'I'
aS'want'
p384
aa(lp385
S'She'
p386
aS'had'
p387
aS'a'
aa(lp388
S'She'
p389
aS'bought'
p390
aS'a'
aa(lp391
S'She'
p392
aS'wanted'
p393
aS'to'
p394
aa(lp395
S'She'
p396
aS'made'
p397
aS'her'
p398
aa(lp399
S'She'
p400
aS'knew'
p401
aS'foreclosure'
p402
aa(lp403
S'But'
p404
aS'when'
p405
aS'things'
p406
aa(lp407
S'And'
p408
aS'they'
p409
aS'helped'
p410
aa(lp411
S'They'
p412
aS'set'
p413
aS'her'
p414
aa(lp415
S'She'
p416
aS'refinanced'
p417
aS'her'
p418
aa(lp419
S'She'
p420
aS'was'
p421
aS'able'
p422
aa(lp423
S'Even'
p424
aS'though'
p425
aS'it'
p426
aa(lp427
S'Lorraine'
p428
aS'came'
p429
aS'back'
p430
aa(lp431
S'Just'
p432
aS'like'
p433
aS'America'
p434
aa(lp435
S'So'
p436
aS'I'
aS'just'
p437
aa(lp438
S'There'
p439
aS'are'
p440
aS'workers'
p441
aa(lp442
S'There'
p443
aS'are'
p444
aS'families'
p445
aa(lp446
S'There'
p447
aS'are'
p448
aS'autoworkers'
p449
aa(lp450
S'America'
p451
aS'is'
p452
aS'coming'
p453
aa.